Component: ARM Compiler 5.06 update 1 (build 61) Tool: armlink [4d35a8]

==============================================================================

Section Cross References

    app.o(.text) refers to protocol.o(.text) for crc16_modbus
    app.o(.text) refers to usart.o(.text) for USART_OUT
    app.o(.text) refers to os_time.o(.text) for OSTimeDly
    app.o(.text) refers to memseta.o(.text) for __aeabi_memclr4
    app.o(.text) refers to dhcp_2.o(.text) for dhcp_coarse_tmr
    app.o(.text) refers to timer.o(.text) for timer_is_timeout_1MS
    app.o(.text) refers to stm32f2xx_gpio.o(.text) for GPIO_ReadOutputDataBit
    app.o(.text) refers to os_task.o(.text) for OSTaskCreate
    app.o(.text) refers to dhcp.o(.text) for dhcp_task_create
    app.o(.text) refers to os_tmr.o(.text) for OSTmrCreate
    app.o(.text) refers to os_q.o(.text) for OSQCreate
    app.o(.text) refers to cpu_core.o(.text) for CPU_Init
    app.o(.text) refers to bsp.o(.text) for BSP_CPU_TickInit
    app.o(.text) refers to os_stat.o(.text) for OSStatTaskCPUUsageInit
    app.o(.text) refers to os_core.o(.text) for OSSchedRoundRobinCfg
    app.o(.text) refers to cpu_a.o(.text) for CPU_SR_Save
    app.o(.text) refers to app.o(.bss) for led0_task_stk
    app.o(.text) refers to usart.o(.data) for usart2_rx_status
    os_app_hooks.o(.text) refers to cpu_a.o(.text) for CPU_SR_Save
    os_app_hooks.o(.text) refers to os_var.o(.data) for OS_AppTaskCreateHookPtr
    system_stm32f2xx.o(.text) refers to system_stm32f2xx.o(.data) for SystemCoreClock
    protocol.o(.text) refers to usart.o(.text) for USART_OUT
    protocol.o(.text) refers to memseta.o(.text) for __aeabi_memclr
    protocol.o(.text) refers to memcpya.o(.text) for __aeabi_memcpy
    protocol.o(.text) refers to rawudp.o(.text) for rawudp_send_data
    protocol.o(.text) refers to protocol.o(.bss) for dev_info
    protocol.o(.text) refers to usart.o(.data) for gprs_rx_buff
    protocol.o(.text) refers to rawudp.o(.data) for udppcb
    protocol.o(.text) refers to timer.o(.text) for get_heart_tick
    protocol.o(.text) refers to os_time.o(.text) for OSTimeDly
    protocol.o(.text) refers to cpu_a.o(.text) for CPU_SR_Save
    protocol.o(.text) refers to os_task.o(.text) for OSTaskCreate
    protocol.o(.text) refers to protocol.o(.data) for heart_cnt
    protocol.o(.text) refers to app.o(.bss) for protocol_task_stk
    protocol.o(.text) refers to protocol.o(.constdata) for crc_table
    bsp.o(.text) refers to system_stm32f2xx.o(.text) for SystemInit
    bsp.o(.text) refers to stm32f2xx_rcc.o(.text) for RCC_AHB1PeriphClockCmd
    bsp.o(.text) refers to stm32f2xx_gpio.o(.text) for GPIO_Init
    bsp.o(.text) refers to misc.o(.text) for NVIC_PriorityGroupConfig
    bsp.o(.text) refers to usart.o(.text) for usart2_init
    bsp.o(.text) refers to timer.o(.text) for timer3_init
    bsp.o(.text) refers to w25qxx.o(.text) for w25qxx_init
    bsp.o(.text) refers to rtc.o(.text) for rtc_init
    bsp.o(.text) refers to os_cpu_c.o(.text) for OS_CPU_SysTickInit
    bsp.o(.text) refers to os_cfg_app.o(.constdata) for OSCfg_TickRate_Hz
    bsp.o(.text) refers to cpu_core.o(.text) for CPU_TS_TmrFreqSet
    bsp.o(.text) refers to stm32f2xx_iwdg.o(.text) for IWDG_ReloadCounter
    bsp_int.o(.text) refers to cpu_c.o(.text) for CPU_IntSrcDis
    bsp_int.o(.text) refers to cpu_a.o(.text) for CPU_IntDis
    bsp_int.o(.text) refers to os_core.o(.text) for OSIntEnter
    bsp_int.o(.text) refers to bsp_int.o(.bss) for BSP_IntVectTbl
    bsp_ioe.o(.text) refers to stm32f2xx_rcc.o(.text) for RCC_AHB1PeriphClockCmd
    bsp_ioe.o(.text) refers to stm32f2xx_dma.o(.text) for DMA_DeInit
    bsp_ioe.o(.text) refers to stm32f2xx_i2c.o(.text) for I2C_GenerateSTART
    bsp_ioe.o(.text) refers to bsp_ioe.o(.data) for IOE_TimeOut
    bsp_ioe.o(.text) refers to bsp_os.o(.text) for BSP_OS_TimeDlyMs
    bsp_ioe.o(.text) refers to stm32f2xx_gpio.o(.text) for GPIO_Init
    bsp_ioe.o(.text) refers to stm32f2xx_syscfg.o(.text) for SYSCFG_EXTILineConfig
    bsp_lcd.o(.text) refers to stm32f2xx_rcc.o(.text) for RCC_AHB3PeriphClockCmd
    bsp_lcd.o(.text) refers to stm32f2xx_fsmc.o(.text) for FSMC_NORSRAMInit
    bsp_lcd.o(.text) refers to stm32f2xx_gpio.o(.text) for GPIO_Init
    bsp_lcd.o(.text) refers to bsp_os.o(.text) for BSP_OS_TimeDlyMs
    bsp_os.o(.text) refers to os_sem.o(.text) for OSSemCreate
    bsp_os.o(.text) refers to os_time.o(.text) for OSTimeDlyHMSM
    bsp_os.o(.text) refers to os_cfg_app.o(.constdata) for OSCfg_TickRate_Hz
    bsp_ser.o(.text) refers to stm32f2xx_usart.o(.text) for USART_ReceiveData
    bsp_ser.o(.text) refers to bsp_os.o(.text) for BSP_OS_SemPost
    bsp_ser.o(.text) refers to stm32f2xx_rcc.o(.text) for RCC_AHB1PeriphClockCmd
    bsp_ser.o(.text) refers to stm32f2xx_gpio.o(.text) for GPIO_Init
    bsp_ser.o(.text) refers to bsp_int.o(.text) for BSP_IntVectSet
    bsp_ser.o(.text) refers to printfa.o(i.__0vsnprintf) for __c89vsnprintf
    bsp_ser.o(.text) refers to lib_ascii.o(.text) for ASCII_IsPrint
    bsp_ser.o(.text) refers to bsp_ser.o(.data) for BSP_SerRxData
    bsp_ser.o(.text) refers to bsp_ser.o(.bss) for BSP_SerRxWait
    w25qxx.o(.text) refers to stm32f2xx_gpio.o(.text) for GPIO_ResetBits
    w25qxx.o(.text) refers to spi.o(.text) for spi1_exchange_byte
    w25qxx.o(.text) refers to usart.o(.text) for USART_OUT
    w25qxx.o(.text) refers to w25qxx.o(.bss) for w25qxx_flash_buf
    usart.o(.text) refers to os_core.o(.text) for OSIntEnter
    usart.o(.text) refers to stm32f2xx_usart.o(.text) for USART_GetITStatus
    usart.o(.text) refers to memseta.o(.text) for __aeabi_memclr
    usart.o(.text) refers to bsp_int.o(.text) for BSP_IntVectSet
    usart.o(.text) refers to os_q.o(.text) for OSQPost
    usart.o(.text) refers to printf3.o(i.__0sprintf$3) for __2sprintf
    usart.o(.text) refers to usart.o(.data) for usart2_rx_status
    usart.o(.text) refers to app.o(.bss) for usart3_msg
    usart.o(.data) refers to usart.o(.bss) for sb
    gprs.o(.text) refers to stm32f2xx_gpio.o(.text) for GPIO_SetBits
    gprs.o(.text) refers to os_time.o(.text) for OSTimeDlyHMSM
    gprs.o(.text) refers to usart.o(.text) for USART_OUT
    gprs.o(.text) refers to strstr.o(.text) for strstr
    gprs.o(.text) refers to timer.o(.text) for timer_is_timeout_1MS
    gprs.o(.text) refers to memseta.o(.text) for __aeabi_memclr
    gprs.o(.text) refers to usart.o(.data) for gprs_rx_buff
    gprs.o(.text) refers to gprs.o(.data) for gprs_status
    gprs.o(.text) refers to cpu_a.o(.text) for CPU_SR_Save
    gprs.o(.text) refers to os_task.o(.text) for OSTaskCreate
    gprs.o(.text) refers to app.o(.bss) for gprs_init_task_stk
    timer.o(.text) refers to stm32f2xx_tim.o(.text) for TIM_GetITStatus
    timer.o(.text) refers to bsp_int.o(.text) for BSP_IntVectSet
    timer.o(.text) refers to timer.o(.data) for g_timeout_cnt
    timer.o(.text) refers to timer.o(.bss) for g_timer_cnt
    timer.o(.text) refers to lan8720.o(.data) for lwip_localtime
    spi.o(.text) refers to stm32f2xx_spi.o(.text) for SPI_Init
    rtc.o(.text) refers to stm32f2xx_rtc.o(.text) for RTC_GetFlagStatus
    rtc.o(.text) refers to stm32f2xx_exti.o(.text) for EXTI_ClearITPendingBit
    rtc.o(.text) refers to usart.o(.text) for USART_OUT
    rtc.o(.text) refers to stm32f2xx_pwr.o(.text) for PWR_BackupAccessCmd
    rtc.o(.text) refers to stm32f2xx_rcc.o(.text) for RCC_LSEConfig
    rtc.o(.text) refers to bsp_int.o(.text) for BSP_IntVectSet
    lan8720.o(.text) refers to stm32f2x7_eth.o(.text) for ETH_DeInit
    lan8720.o(.text) refers to lwip_comm_1.o(.text) for lwip_comm_pkt_handle
    lan8720.o(.text) refers to stm32f2xx_syscfg.o(.text) for SYSCFG_ETH_MediaInterfaceConfig
    lan8720.o(.text) refers to stm32f2xx_gpio.o(.text) for GPIO_ResetBits
    lan8720.o(.text) refers to timer.o(.text) for timer_delay_1ms
    lan8720.o(.text) refers to bsp_int.o(.text) for BSP_IntVectSet
    lan8720.o(.text) refers to usart.o(.text) for USART_OUT
    lan8720.o(.text) refers to memcpya.o(.text) for __aeabi_memcpy
    lan8720.o(.text) refers to stm32f2x7_eth.o(.data) for DMARxDescToGet
    flash.o(.text) refers to stm32f2xx_flash.o(.text) for FLASH_Unlock
    diskio.o(.text) refers to w25qxx.o(.text) for w25qxx_init
    diskio.o(.text) refers to diskio.o(.data) for FLASH_SECTOR_COUNT
    ff.o(.text) refers to diskio.o(.text) for disk_write
    ff.o(.text) refers to ff.o(.constdata) for DbcTbl
    ff.o(.text) refers to ff.o(.bss) for Files
    ff.o(.text) refers to ffunicode.o(.text) for ff_wtoupper
    ff.o(.text) refers to ff.o(.data) for FatFs
    ff.o(.constdata) refers to ff.o(.conststring) for .conststring
    ffunicode.o(.text) refers to ffunicode.o(.constdata) for uni2oem936
    stm32f2x7_eth.o(.text) refers to stm32f2xx_rcc.o(.text) for RCC_AHB1PeriphResetCmd
    stm32f2x7_eth.o(.text) refers to stm32f2x7_eth.o(.data) for DMARxDescToGet
    stm32f2x7_eth.o(.text) refers to stm32f2x7_eth.o(.bss) for RX_Frame_Descriptor
    stm32f2xx_adc.o(.text) refers to stm32f2xx_rcc.o(.text) for RCC_APB2PeriphResetCmd
    stm32f2xx_cryp.o(.text) refers to stm32f2xx_rcc.o(.text) for RCC_AHB2PeriphResetCmd
    stm32f2xx_cryp_aes.o(.text) refers to stm32f2xx_cryp.o(.text) for CRYP_KeyStructInit
    stm32f2xx_cryp_des.o(.text) refers to stm32f2xx_cryp.o(.text) for CRYP_KeyStructInit
    stm32f2xx_cryp_tdes.o(.text) refers to stm32f2xx_cryp.o(.text) for CRYP_KeyStructInit
    stm32f2xx_dac.o(.text) refers to stm32f2xx_rcc.o(.text) for RCC_APB1PeriphResetCmd
    stm32f2xx_gpio.o(.text) refers to stm32f2xx_rcc.o(.text) for RCC_AHB1PeriphResetCmd
    stm32f2xx_i2c.o(.text) refers to stm32f2xx_rcc.o(.text) for RCC_APB1PeriphResetCmd
    stm32f2xx_pwr.o(.text) refers to stm32f2xx_rcc.o(.text) for RCC_APB1PeriphResetCmd
    stm32f2xx_rcc.o(.text) refers to stm32f2xx_rcc.o(.data) for APBAHBPrescTable
    stm32f2xx_rng.o(.text) refers to stm32f2xx_rcc.o(.text) for RCC_AHB2PeriphResetCmd
    stm32f2xx_spi.o(.text) refers to stm32f2xx_rcc.o(.text) for RCC_APB2PeriphResetCmd
    stm32f2xx_syscfg.o(.text) refers to stm32f2xx_rcc.o(.text) for RCC_APB2PeriphResetCmd
    stm32f2xx_tim.o(.text) refers to stm32f2xx_rcc.o(.text) for RCC_APB2PeriphResetCmd
    stm32f2xx_usart.o(.text) refers to stm32f2xx_rcc.o(.text) for RCC_APB2PeriphResetCmd
    stm32f2xx_wwdg.o(.text) refers to stm32f2xx_rcc.o(.text) for RCC_APB1PeriphResetCmd
    lib_math.o(.text) refers to cpu_a.o(.text) for CPU_SR_Save
    lib_math.o(.text) refers to lib_math.o(.data) for Math_RandSeedCur
    lib_mem.o(.text) refers to lib_mem_a.o(.text) for Mem_Copy
    lib_mem.o(.text) refers to cpu_core.o(.text) for CPU_SW_Exception
    lib_mem.o(.text) refers to cpu_a.o(.text) for CPU_SR_Save
    lib_mem.o(.text) refers to lib_mem.o(.bss) for Mem_PoolHeap
    lib_mem.o(.text) refers to lib_mem.o(.data) for Mem_PoolTbl
    lib_str.o(.text) refers to lib_ascii.o(.text) for ASCII_ToLower
    lib_str.o(.text) refers to lib_str.o(.constdata) for Str_MultOvfThTbl_Int32U
    cpu_core.o(.text) refers to cpu_a.o(.text) for CPU_SR_Save
    cpu_core.o(.text) refers to lib_mem.o(.text) for Mem_Clr
    cpu_core.o(.text) refers to bsp.o(.text) for CPU_TS_TmrInit
    cpu_core.o(.text) refers to lib_str.o(.text) for Str_Copy_N
    cpu_core.o(.text) refers to cpu_core.o(.bss) for CPU_Name
    cpu_core.o(.text) refers to cpu_core.o(.data) for CPU_TS_TmrFreq_Hz
    cpu_core.o(.text) refers to cpu_core.o(.constdata) for CPU_CntLeadZerosTbl
    cpu_c.o(.text) refers to cpu_a.o(.text) for CPU_SR_Save
    os_cpu_c.o(.text) refers to bsp.o(.text) for CPU_TS_TmrRd
    os_cpu_c.o(.text) refers to cpu_a.o(.text) for CPU_SR_Save
    os_cpu_c.o(.text) refers to os_time.o(.text) for OSTimeTick
    os_cpu_c.o(.text) refers to os_core.o(.text) for OSIntExit
    os_cpu_c.o(.text) refers to os_var.o(.data) for OS_AppIdleTaskHookPtr
    os_cpu_c.o(.text) refers to os_cfg_app.o(.constdata) for OSCfg_ISRStkBasePtr
    os_cpu_c.o(.text) refers to os_cpu_c.o(.data) for OS_CPU_ExceptStkBase
    os_cpu_c.o(.text) refers to os_task.o(.text) for OS_TaskReturn
    os_cpu_a.o(CODE) refers (Special) to os_core.o(.text) for OSIntExit
    os_cpu_a.o(CODE) refers (Special) to os_var.o(.data) for OSRunning
    os_cpu_a.o(CODE) refers to os_cpu_c.o(.data) for OS_CPU_ExceptStkBase
    os_cpu_a.o(CODE) refers to os_cpu_c.o(.text) for OSTaskSwHook
    os_cfg_app.o(.constdata) refers to os_cfg_app.o(.bss) for OSCfg_IdleTaskStk
    os_core.o(.text) refers to cpu_a.o(.text) for CPU_SR_Save
    os_core.o(.text) refers to os_cpu_c.o(.text) for OSIdleTaskHook
    os_core.o(.text) refers to os_task.o(.text) for OSTaskCreate
    os_core.o(.text) refers to os_prio.o(.text) for OS_PrioInit
    os_core.o(.text) refers to os_flag.o(.text) for OS_FlagInit
    os_core.o(.text) refers to os_mem.o(.text) for OS_MemInit
    os_core.o(.text) refers to os_msg.o(.text) for OS_MsgPoolInit
    os_core.o(.text) refers to os_mutex.o(.text) for OS_MutexInit
    os_core.o(.text) refers to os_q.o(.text) for OS_QInit
    os_core.o(.text) refers to os_sem.o(.text) for OS_SemInit
    os_core.o(.text) refers to os_tick.o(.text) for OS_TickTaskInit
    os_core.o(.text) refers to os_stat.o(.text) for OS_StatTaskInit
    os_core.o(.text) refers to os_tmr.o(.text) for OS_TmrInit
    os_core.o(.text) refers to os_dbg.o(.text) for OS_Dbg_Init
    os_core.o(.text) refers to os_cfg_app.o(.text) for OSCfg_Init
    os_core.o(.text) refers to bsp.o(.text) for CPU_TS_TmrRd
    os_core.o(.text) refers to os_var.o(.data) for OSIdleTaskCtr
    os_core.o(.text) refers to os_cfg_app.o(.constdata) for OSCfg_IdleTaskStkSize
    os_core.o(.text) refers to os_var.o(.bss) for OSIdleTaskTCB
    os_core.o(.text) refers to os_cpu_a.o(CODE) for OSStartHighRdy
    os_dbg.o(.text) refers to os_dbg.o(.constdata) for OSDbg_DbgEn
    os_flag.o(.text) refers to cpu_a.o(.text) for CPU_SR_Save
    os_flag.o(.text) refers to os_core.o(.text) for OS_PendListInit
    os_flag.o(.text) refers to bsp.o(.text) for CPU_TS_TmrRd
    os_flag.o(.text) refers to os_var.o(.data) for OSFlagDbgListPtr
    os_mem.o(.text) refers to cpu_a.o(.text) for CPU_SR_Save
    os_mem.o(.text) refers to os_var.o(.data) for OSMemDbgListPtr
    os_msg.o(.text) refers to os_cfg_app.o(.constdata) for OSCfg_MsgPoolBasePtr
    os_msg.o(.text) refers to os_var.o(.bss) for OSMsgPool
    os_mutex.o(.text) refers to cpu_a.o(.text) for CPU_SR_Save
    os_mutex.o(.text) refers to os_core.o(.text) for OS_PendListInit
    os_mutex.o(.text) refers to os_prio.o(.text) for OS_PrioInsert
    os_mutex.o(.text) refers to bsp.o(.text) for CPU_TS_TmrRd
    os_mutex.o(.text) refers to os_var.o(.data) for OSMutexDbgListPtr
    os_pend_multi.o(.text) refers to os_core.o(.text) for OS_TaskBlock
    os_pend_multi.o(.text) refers to os_msg.o(.text) for OS_MsgQGet
    os_pend_multi.o(.text) refers to cpu_a.o(.text) for CPU_SR_Save
    os_pend_multi.o(.text) refers to os_var.o(.data) for OSTCBCurPtr
    os_prio.o(.text) refers to cpu_a.o(.text) for CPU_CntLeadZeros
    os_prio.o(.text) refers to os_prio.o(.data) for OSPrioTbl
    os_q.o(.text) refers to cpu_a.o(.text) for CPU_SR_Save
    os_q.o(.text) refers to os_msg.o(.text) for OS_MsgQInit
    os_q.o(.text) refers to os_core.o(.text) for OS_PendListInit
    os_q.o(.text) refers to bsp.o(.text) for CPU_TS_TmrRd
    os_q.o(.text) refers to os_var.o(.data) for OSQDbgListPtr
    os_sem.o(.text) refers to cpu_a.o(.text) for CPU_SR_Save
    os_sem.o(.text) refers to os_core.o(.text) for OS_PendListInit
    os_sem.o(.text) refers to bsp.o(.text) for CPU_TS_TmrRd
    os_sem.o(.text) refers to os_var.o(.data) for OSSemDbgListPtr
    os_stat.o(.text) refers to cpu_a.o(.text) for CPU_SR_Save
    os_stat.o(.text) refers to bsp.o(.text) for CPU_TS_TmrRd
    os_stat.o(.text) refers to os_tick.o(.text) for OS_TickListResetPeak
    os_stat.o(.text) refers to os_tmr.o(.text) for OS_TmrResetPeak
    os_stat.o(.text) refers to os_task.o(.text) for OSTaskSuspend
    os_stat.o(.text) refers to os_time.o(.text) for OSTimeDly
    os_stat.o(.text) refers to os_cpu_c.o(.text) for OSStatTaskHook
    os_stat.o(.text) refers to os_var.o(.data) for OSStatTaskCPUUsageMax
    os_stat.o(.text) refers to os_var.o(.bss) for OSMsgPool
    os_stat.o(.text) refers to os_cfg_app.o(.constdata) for OSCfg_TickRate_Hz
    os_task.o(.text) refers to cpu_a.o(.text) for CPU_SR_Save
    os_task.o(.text) refers to os_core.o(.text) for OS_RdyListRemove
    os_task.o(.text) refers to os_prio.o(.text) for OS_PrioInsert
    os_task.o(.text) refers to os_msg.o(.text) for OS_MsgQInit
    os_task.o(.text) refers to bsp.o(.text) for CPU_TS_TmrRd
    os_task.o(.text) refers to os_cpu_c.o(.text) for OSTaskStkInit
    os_task.o(.text) refers to os_var.o(.data) for OSIntNestingCtr
    os_task.o(.text) refers to os_cfg_app.o(.constdata) for OSCfg_StkSizeMin
    os_task.o(.text) refers to os_var.o(.bss) for OSIdleTaskTCB
    os_task.o(.text) refers to os_tick.o(.text) for OS_TickListRemove
    os_tick.o(.text) refers to cpu_a.o(.text) for CPU_SR_Save
    os_tick.o(.text) refers to bsp.o(.text) for CPU_TS_TmrRd
    os_tick.o(.text) refers to os_core.o(.text) for OS_TaskRdy
    os_tick.o(.text) refers to os_task.o(.text) for OSTaskSemPend
    os_tick.o(.text) refers to os_var.o(.data) for OSTickCtr
    os_tick.o(.text) refers to os_cfg_app.o(.constdata) for OSCfg_TickWheelSize
    os_tick.o(.text) refers to os_cfg_app.o(.bss) for OSCfg_TickWheel
    os_tick.o(.text) refers to os_var.o(.bss) for OSTickTaskTCB
    os_time.o(.text) refers to cpu_a.o(.text) for CPU_SR_Save
    os_time.o(.text) refers to os_tick.o(.text) for OS_TickListInsert
    os_time.o(.text) refers to os_core.o(.text) for OS_RdyListRemove
    os_time.o(.text) refers to os_var.o(.data) for OSIntNestingCtr
    os_time.o(.text) refers to os_cfg_app.o(.constdata) for OSCfg_TickRate_Hz
    os_time.o(.text) refers to os_cpu_c.o(.text) for OSTimeTickHook
    os_time.o(.text) refers to os_task.o(.text) for OSTaskSemPost
    os_time.o(.text) refers to os_var.o(.bss) for OSTickTaskTCB
    os_tmr.o(.text) refers to cpu_a.o(.text) for CPU_SR_Save
    os_tmr.o(.text) refers to os_core.o(.text) for OSSchedLock
    os_tmr.o(.text) refers to os_var.o(.data) for OSTmrDbgListPtr
    os_tmr.o(.text) refers to os_cfg_app.o(.constdata) for OSCfg_TmrWheelSize
    os_tmr.o(.text) refers to os_cfg_app.o(.bss) for OSCfg_TmrWheel
    os_tmr.o(.text) refers to os_task.o(.text) for OSTaskSemPend
    os_tmr.o(.text) refers to bsp.o(.text) for CPU_TS_TmrRd
    os_tmr.o(.text) refers to os_var.o(.bss) for OSTmrTaskTCB
    cstartup.o(RESET) refers to cstartup.o(STACK) for __initial_sp
    cstartup.o(RESET) refers to cstartup.o(.text) for Reset_Handler
    cstartup.o(RESET) refers to os_cpu_a.o(CODE) for OS_CPU_PendSVHandler
    cstartup.o(RESET) refers to os_cpu_c.o(.text) for OS_CPU_SysTickHandler
    cstartup.o(RESET) refers to bsp_int.o(.text) for BSP_IntHandlerWWDG
    cstartup.o(.text) refers to entry.o(.ARM.Collect$$$$00000000) for __main
    sys_arch.o(.text) refers to os_q.o(.text) for OSQCreate
    sys_arch.o(.text) refers to printf3.o(i.__0printf$3) for __2printf
    sys_arch.o(.text) refers to strlen.o(.text) for strlen
    sys_arch.o(.text) refers to os_time.o(.text) for OSTimeDlyHMSM
    sys_arch.o(.text) refers to strcmp.o(.text) for strcmp
    sys_arch.o(.text) refers to os_sem.o(.text) for OSSemCreate
    sys_arch.o(.text) refers to cpu_a.o(.text) for CPU_SR_Save
    sys_arch.o(.text) refers to os_task.o(.text) for OSTaskCreate
    sys_arch.o(.text) refers to usart.o(.text) for USART_OUT
    sys_arch.o(.text) refers to sys_arch.o(.constdata) for pvNullPointer
    sys_arch.o(.text) refers to sys_arch.o(.bss) for tcpip_thread_task_stk
    rawudp.o(.text) refers to printf3.o(i.__0sprintf$3) for __2sprintf
    rawudp.o(.text) refers to strlen.o(.text) for strlen
    rawudp.o(.text) refers to pbuf.o(.text) for pbuf_alloc
    rawudp.o(.text) refers to udp.o(.text) for udp_send
    rawudp.o(.text) refers to memseta.o(.text) for __aeabi_memclr4
    rawudp.o(.text) refers to memcpya.o(.text) for __aeabi_memcpy
    rawudp.o(.text) refers to usart.o(.text) for USART_OUT
    rawudp.o(.text) refers to os_time.o(.text) for OSTimeDly
    rawudp.o(.text) refers to cpu_a.o(.text) for CPU_SR_Save
    rawudp.o(.text) refers to os_task.o(.text) for OSTaskCreate
    rawudp.o(.text) refers to rawudp.o(.bss) for rawudp_send_buff
    rawudp.o(.text) refers to lwip_comm_1.o(.bss) for lwip_dev
    rawudp.o(.text) refers to rawudp.o(.data) for udppcb
    rawudp.o(.text) refers to ip4_addr.o(.constdata) for ip_addr_any
    dhcp.o(.text) refers to dhcp_2.o(.text) for dhcp_stop
    dhcp.o(.text) refers to os_task.o(.text) for OSTaskDel
    dhcp.o(.text) refers to lwip_comm_1.o(.text) for lwip_comm_dev_init
    dhcp.o(.text) refers to usart.o(.text) for USART_OUT
    dhcp.o(.text) refers to rawudp.o(.text) for rawudp_task_create
    dhcp.o(.text) refers to os_time.o(.text) for OSTimeDly
    dhcp.o(.text) refers to cpu_a.o(.text) for CPU_SR_Save
    dhcp.o(.text) refers to lwip_comm_1.o(.bss) for lwip_netif
    dhcp.o(.text) refers to dhcp.o(.bss) for dhcp_task_TCB
    lwip_comm_1.o(.text) refers to lan8720.o(.text) for LAN8720_Init
    lwip_comm_1.o(.text) refers to tcpip.o(.text) for tcpip_init
    lwip_comm_1.o(.text) refers to cpu_a.o(.text) for CPU_SR_Save
    lwip_comm_1.o(.text) refers to netif.o(.text) for netif_add
    lwip_comm_1.o(.text) refers to usart.o(.text) for USART_OUT
    lwip_comm_1.o(.text) refers to ethernetif.o(.text) for ethernetif_input
    lwip_comm_1.o(.text) refers to lwip_comm_1.o(.bss) for lwip_dev
    api_lib.o(.text) refers to tcpip.o(.text) for tcpip_send_msg_wait_sem
    api_lib.o(.text) refers to api_msg.o(.text) for netconn_alloc
    api_lib.o(.text) refers to printf3.o(i.__0printf$3) for __2printf
    api_lib.o(.text) refers to sys_arch.o(.text) for sys_mbox_valid
    api_lib.o(.text) refers to memp.o(.text) for memp_free
    api_lib.o(.text) refers to cpu_a.o(.text) for CPU_SR_Save
    api_lib.o(.text) refers to ip4_addr.o(.constdata) for ip_addr_any
    api_lib.o(.text) refers to api_msg.o(.data) for netconn_aborted
    api_msg.o(.text) refers to printf3.o(i.__0printf$3) for __2printf
    api_msg.o(.text) refers to pbuf.o(.text) for pbuf_free
    api_msg.o(.text) refers to sys_arch.o(.text) for sys_mbox_valid
    api_msg.o(.text) refers to memp.o(.text) for memp_malloc
    api_msg.o(.text) refers to netbuf.o(.text) for netbuf_delete
    api_msg.o(.text) refers to tcp.o(.text) for tcp_recved
    api_msg.o(.text) refers to cpu_a.o(.text) for CPU_SR_Save
    api_msg.o(.text) refers to tcp_out.o(.text) for tcp_write
    api_msg.o(.text) refers to udp.o(.text) for udp_new_ip_type
    api_msg.o(.text) refers to api_msg.o(.data) for netconn_aborted
    api_msg.o(.text) refers to tcpip.o(.bss) for lock_tcpip_core
    err.o(.text) refers to err.o(.constdata) for err_to_errno_table
    netbuf.o(.text) refers to memp.o(.text) for memp_malloc
    netbuf.o(.text) refers to pbuf.o(.text) for pbuf_free
    netbuf.o(.text) refers to printf3.o(i.__0printf$3) for __2printf
    sockets.o(.text) refers to cpu_a.o(.text) for CPU_SR_Save
    sockets.o(.text) refers to pbuf.o(.text) for pbuf_free
    sockets.o(.text) refers to netbuf.o(.text) for netbuf_delete
    sockets.o(.text) refers to printf3.o(i.__0printf$3) for __2printf
    sockets.o(.text) refers to sys_arch.o(.text) for sys_sem_signal
    sockets.o(.text) refers to api_lib.o(.text) for netconn_accept
    sockets.o(.text) refers to err.o(.text) for err_to_errno
    sockets.o(.text) refers to sockets.o(.data) for errno
    sockets.o(.text) refers to sockets.o(.bss) for sockets
    sockets.o(.text) refers to def.o(.text) for lwip_htons
    sockets.o(.text) refers to memcpya.o(.text) for __aeabi_memcpy
    sockets.o(.text) refers to tcpip.o(.bss) for lock_tcpip_core
    tcpip.o(.text) refers to sys_arch.o(.text) for sys_arch_sem_wait
    tcpip.o(.text) refers to timeouts.o(.text) for sys_timeouts_mbox_fetch
    tcpip.o(.text) refers to printf3.o(i.__0printf$3) for __2printf
    tcpip.o(.text) refers to memp.o(.text) for memp_free
    tcpip.o(.text) refers to init.o(.text) for lwip_init
    tcpip.o(.text) refers to pbuf.o(.text) for pbuf_free
    tcpip.o(.text) refers to tcpip.o(.data) for tcpip_init_done
    tcpip.o(.text) refers to tcpip.o(.bss) for lock_tcpip_core
    tcpip.o(.text) refers to ethernet.o(.text) for ethernet_input
    tcpip.o(.text) refers to ip4.o(.text) for ip4_input
    tcpip.o(.text) refers to mem.o(.text) for mem_free
    ethernet.o(.text) refers to memcmp.o(.text) for memcmp
    ethernet.o(.text) refers to pbuf.o(.text) for pbuf_header
    ethernet.o(.text) refers to ip4.o(.text) for ip4_input
    ethernet.o(.text) refers to etharp.o(.text) for etharp_input
    ethernet.o(.text) refers to def.o(.text) for lwip_htons
    ethernet.o(.text) refers to printf3.o(i.__0printf$3) for __2printf
    ethernet.o(.text) refers to ethernet.o(.constdata) for ethbroadcast
    ethernetif.o(.text) refers to stm32f2x7_eth.o(.text) for ETH_MACAddressConfig
    ethernetif.o(.text) refers to lan8720.o(.text) for lan8720_write_buff
    ethernetif.o(.text) refers to pbuf.o(.text) for pbuf_alloc
    ethernetif.o(.text) refers to memcpya.o(.text) for __aeabi_memcpy
    ethernetif.o(.text) refers to printf3.o(i.__0printf$3) for __2printf
    ethernetif.o(.text) refers to mem.o(.text) for mem_malloc
    ethernetif.o(.text) refers to lwip_comm_1.o(.bss) for lwip_dev
    ethernetif.o(.text) refers to stm32f2x7_eth.o(.bss) for Tx_Buff
    ethernetif.o(.text) refers to etharp.o(.text) for etharp_output
    def.o(.text) refers to strlen.o(.text) for strlen
    def.o(.text) refers to strncmp.o(.text) for strncmp
    def.o(.text) refers to def.o(.conststring) for .conststring
    inet_chksum.o(.text) refers to def.o(.text) for lwip_htons
    inet_chksum.o(.text) refers to printf3.o(i.__0printf$3) for __2printf
    init.o(.text) refers to printf3.o(i.__0printf$3) for __2printf
    init.o(.text) refers to sys_arch.o(.text) for sys_init
    init.o(.text) refers to mem.o(.text) for mem_init
    init.o(.text) refers to memp.o(.text) for memp_init
    init.o(.text) refers to netif.o(.text) for netif_init
    init.o(.text) refers to udp.o(.text) for udp_init
    init.o(.text) refers to tcp.o(.text) for tcp_init
    init.o(.text) refers to timeouts.o(.text) for sys_timeouts_init
    init.o(.text) refers to init.o(.conststring) for .conststring
    mem.o(.text) refers to printf3.o(i.__0printf$3) for __2printf
    mem.o(.text) refers to sys_arch.o(.text) for sys_sem_new
    mem.o(.text) refers to cpu_a.o(.text) for CPU_SR_Save
    mem.o(.text) refers to mem.o(.data) for ram
    mem.o(.text) refers to mem.o(.bss) for ram_heap
    mem.o(.text) refers to memseta.o(.text) for __aeabi_memclr
    memp.o(.text) refers to cpu_a.o(.text) for CPU_SR_Save
    memp.o(.text) refers to printf3.o(i.__0printf$3) for __2printf
    memp.o(.text) refers to memp.o(.constdata) for memp_pools
    memp.o(.constdata) refers to memp.o(.bss) for memp_memory_UDP_PCB_base
    memp.o(.constdata) refers to memp.o(.data) for memp_tab_UDP_PCB
    netif.o(.text) refers to ethernet.o(.text) for ethernet_input
    netif.o(.text) refers to ip4.o(.text) for ip4_input
    netif.o(.text) refers to etharp.o(.text) for etharp_request
    netif.o(.text) refers to tcp.o(.text) for tcp_netif_ip_addr_changed
    netif.o(.text) refers to udp.o(.text) for udp_netif_ip_addr_changed
    netif.o(.text) refers to printf3.o(i.__0printf$3) for __2printf
    netif.o(.text) refers to dhcp_2.o(.text) for dhcp_network_changed
    netif.o(.text) refers to ip4_addr.o(.constdata) for ip_addr_any
    netif.o(.text) refers to netif.o(.data) for netif_num
    pbuf.o(.text) refers to printf3.o(i.__0printf$3) for __2printf
    pbuf.o(.text) refers to cpu_a.o(.text) for CPU_SR_Save
    pbuf.o(.text) refers to memp.o(.text) for memp_free
    pbuf.o(.text) refers to mem.o(.text) for mem_free
    pbuf.o(.text) refers to memcpya.o(.text) for __aeabi_memcpy
    pbuf.o(.text) refers to strlen.o(.text) for strlen
    sys.o(.text) refers to sys_arch.o(.text) for sys_sem_new
    tcp.o(.text) refers to pbuf.o(.text) for pbuf_free
    tcp.o(.text) refers to memp.o(.text) for memp_free
    tcp.o(.text) refers to printf3.o(i.__0printf$3) for __2printf
    tcp.o(.text) refers to tcp_out.o(.text) for tcp_zero_window_probe
    tcp.o(.text) refers to tcp.o(.data) for tcp_ticks
    tcp.o(.text) refers to tcp.o(.constdata) for tcp_persist_backoff
    tcp.o(.text) refers to timeouts.o(.text) for tcp_timer_needed
    tcp.o(.text) refers to tcp_in.o(.text) for tcp_trigger_input_pcb_close
    tcp.o(.text) refers to tcp_in.o(.data) for tcp_input_pcb
    tcp.o(.text) refers to ip4_addr.o(.constdata) for ip_addr_any
    tcp.o(.text) refers to ip4.o(.text) for ip4_route
    tcp.o(.text) refers to memseta.o(.text) for __aeabi_memclr4
    tcp.o(.constdata) refers to tcp.o(.conststring) for .conststring
    tcp.o(.constdata) refers to tcp.o(.data) for tcp_listen_pcbs
    tcp_in.o(.text) refers to tcp.o(.text) for tcp_pcb_remove
    tcp_in.o(.text) refers to memp.o(.text) for memp_free
    tcp_in.o(.text) refers to printf3.o(i.__0printf$3) for __2printf
    tcp_in.o(.text) refers to tcp_out.o(.text) for tcp_rexmit_fast
    tcp_in.o(.text) refers to pbuf.o(.text) for pbuf_clen
    tcp_in.o(.text) refers to def.o(.text) for lwip_htonl
    tcp_in.o(.text) refers to tcp_in.o(.data) for recv_flags
    tcp_in.o(.text) refers to tcp.o(.data) for tcp_active_pcbs
    tcp_in.o(.text) refers to tcp_in.o(.bss) for inseg
    tcp_in.o(.text) refers to ip.o(.bss) for ip_data
    tcp_in.o(.text) refers to timeouts.o(.text) for tcp_timer_needed
    tcp_in.o(.text) refers to ip4_addr.o(.text) for ip4_addr_isbroadcast_u32
    tcp_in.o(.text) refers to inet_chksum.o(.text) for ip_chksum_pseudo
    tcp_out.o(.text) refers to pbuf.o(.text) for pbuf_alloc
    tcp_out.o(.text) refers to printf3.o(i.__0printf$3) for __2printf
    tcp_out.o(.text) refers to def.o(.text) for lwip_htons
    tcp_out.o(.text) refers to memp.o(.text) for memp_malloc
    tcp_out.o(.text) refers to tcp.o(.text) for tcp_seg_free
    tcp_out.o(.text) refers to tcp_out.o(.conststring) for .conststring
    tcp_out.o(.text) refers to memcpya.o(.text) for __aeabi_memcpy
    tcp_out.o(.text) refers to ip4.o(.text) for ip4_route
    tcp_out.o(.text) refers to inet_chksum.o(.text) for ip_chksum_pseudo
    tcp_out.o(.text) refers to tcp.o(.data) for tcp_ticks
    tcp_out.o(.text) refers to tcp_in.o(.data) for tcp_input_pcb
    timeouts.o(.text) refers to memp.o(.text) for memp_malloc
    timeouts.o(.text) refers to printf3.o(i.__0printf$3) for __2printf
    timeouts.o(.text) refers to sys_arch.o(.text) for sys_now
    timeouts.o(.text) refers to tcp.o(.text) for tcp_tmr
    timeouts.o(.text) refers to timeouts.o(.data) for next_timeout
    timeouts.o(.text) refers to tcp.o(.data) for tcp_active_pcbs
    timeouts.o(.text) refers to timeouts.o(.constdata) for lwip_cyclic_timers
    timeouts.o(.text) refers to tcpip.o(.bss) for lock_tcpip_core
    timeouts.o(.constdata) refers to tcp.o(.text) for tcp_tmr
    timeouts.o(.constdata) refers to ip4_frag.o(.text) for ip_reass_tmr
    timeouts.o(.constdata) refers to etharp.o(.text) for etharp_tmr
    timeouts.o(.constdata) refers to dhcp_2.o(.text) for dhcp_coarse_tmr
    udp.o(.text) refers to pbuf.o(.text) for pbuf_free
    udp.o(.text) refers to ip4_addr.o(.text) for ip4_addr_isbroadcast_u32
    udp.o(.text) refers to def.o(.text) for lwip_htons
    udp.o(.text) refers to inet_chksum.o(.text) for ip_chksum_pseudo
    udp.o(.text) refers to printf3.o(i.__0printf$3) for __2printf
    udp.o(.text) refers to icmp.o(.text) for icmp_dest_unreach
    udp.o(.text) refers to ip4.o(.text) for ip4_output_if_src
    udp.o(.text) refers to udp.o(.data) for udp_port
    udp.o(.text) refers to ip.o(.bss) for ip_data
    udp.o(.text) refers to ip4_addr.o(.constdata) for ip_addr_any
    udp.o(.text) refers to memp.o(.text) for memp_free
    udp.o(.text) refers to memseta.o(.text) for __aeabi_memclr4
    dhcp_2.o(.text) refers to printf3.o(i.__0printf$3) for __2printf
    dhcp_2.o(.text) refers to pbuf.o(.text) for pbuf_free
    dhcp_2.o(.text) refers to def.o(.text) for lwip_htonl
    dhcp_2.o(.text) refers to dhcp_2.o(.conststring) for .conststring
    dhcp_2.o(.text) refers to dhcp_2.o(.data) for xid
    dhcp_2.o(.text) refers to udp.o(.text) for udp_sendto_if_src
    dhcp_2.o(.text) refers to netif.o(.text) for netif_set_addr
    dhcp_2.o(.text) refers to etharp.o(.text) for etharp_query
    dhcp_2.o(.text) refers to ip4_addr.o(.constdata) for ip_addr_any
    dhcp_2.o(.text) refers to dhcp_2.o(.bss) for dhcp_rx_options_val
    dhcp_2.o(.text) refers to ip.o(.bss) for ip_data
    dhcp_2.o(.text) refers to netif.o(.data) for netif_list
    dhcp_2.o(.text) refers to memseta.o(.text) for __aeabi_memclr4
    dhcp_2.o(.text) refers to mem.o(.text) for mem_free
    etharp.o(.text) refers to pbuf.o(.text) for pbuf_free
    etharp.o(.text) refers to printf3.o(i.__0printf$3) for __2printf
    etharp.o(.text) refers to def.o(.text) for lwip_htons
    etharp.o(.text) refers to ethernet.o(.text) for ethernet_output
    etharp.o(.text) refers to etharp.o(.bss) for arp_table
    etharp.o(.text) refers to etharp.o(.conststring) for .conststring
    etharp.o(.text) refers to ethernet.o(.constdata) for ethzero
    etharp.o(.text) refers to ip4_addr.o(.text) for ip4_addr_isbroadcast_u32
    etharp.o(.text) refers to dhcp_2.o(.text) for dhcp_arp_reply
    etharp.o(.text) refers to etharp.o(.data) for etharp_cached_entry
    icmp.o(.text) refers to ip4_addr.o(.text) for ip4_addr_isbroadcast_u32
    icmp.o(.text) refers to inet_chksum.o(.text) for inet_chksum_pbuf
    icmp.o(.text) refers to pbuf.o(.text) for pbuf_free
    icmp.o(.text) refers to memcpya.o(.text) for __aeabi_memcpy
    icmp.o(.text) refers to printf3.o(i.__0printf$3) for __2printf
    icmp.o(.text) refers to ip4.o(.text) for ip4_output_if
    icmp.o(.text) refers to ip.o(.bss) for ip_data
    ip4.o(.text) refers to pbuf.o(.text) for pbuf_free
    ip4.o(.text) refers to def.o(.text) for lwip_htons
    ip4.o(.text) refers to inet_chksum.o(.text) for inet_chksum
    ip4.o(.text) refers to ip4_addr.o(.text) for ip4_addr_isbroadcast_u32
    ip4.o(.text) refers to ip4_frag.o(.text) for ip4_reass
    ip4.o(.text) refers to udp.o(.text) for udp_input
    ip4.o(.text) refers to tcp_in.o(.text) for tcp_input
    ip4.o(.text) refers to icmp.o(.text) for icmp_input
    ip4.o(.text) refers to printf3.o(i.__0printf$3) for __2printf
    ip4.o(.text) refers to netif.o(.data) for netif_list
    ip4.o(.text) refers to ip.o(.bss) for ip_data
    ip4.o(.text) refers to ip4.o(.data) for ip_id
    ip4.o(.text) refers to ip4_addr.o(.constdata) for ip_addr_any
    ip4_addr.o(.text) refers to def.o(.text) for lwip_htonl
    ip4_addr.o(.text) refers to printf3.o(i.__0printf$3) for __2printf
    ip4_addr.o(.text) refers to ip4_addr.o(.bss) for str
    ip4_frag.o(.text) refers to printf3.o(i.__0printf$3) for __2printf
    ip4_frag.o(.text) refers to memp.o(.text) for memp_free
    ip4_frag.o(.text) refers to memcpya.o(.text) for __aeabi_memcpy
    ip4_frag.o(.text) refers to icmp.o(.text) for icmp_time_exceeded
    ip4_frag.o(.text) refers to pbuf.o(.text) for pbuf_clen
    ip4_frag.o(.text) refers to memseta.o(.text) for __aeabi_memclr4
    ip4_frag.o(.text) refers to def.o(.text) for lwip_htons
    ip4_frag.o(.text) refers to ip4_frag.o(.data) for reassdatagrams
    ip4_frag.o(.text) refers to inet_chksum.o(.text) for inet_chksum
    entry.o(.ARM.Collect$$$$00000000) refers (Special) to entry10a.o(.ARM.Collect$$$$0000000D) for __rt_final_cpp
    entry.o(.ARM.Collect$$$$00000000) refers (Special) to entry11a.o(.ARM.Collect$$$$0000000F) for __rt_final_exit
    entry.o(.ARM.Collect$$$$00000000) refers (Special) to entry7b.o(.ARM.Collect$$$$00000008) for _main_clock
    entry.o(.ARM.Collect$$$$00000000) refers (Special) to entry8b.o(.ARM.Collect$$$$0000000A) for _main_cpp_init
    entry.o(.ARM.Collect$$$$00000000) refers (Special) to entry9a.o(.ARM.Collect$$$$0000000B) for _main_init
    entry.o(.ARM.Collect$$$$00000000) refers (Special) to entry5.o(.ARM.Collect$$$$00000004) for _main_scatterload
    entry.o(.ARM.Collect$$$$00000000) refers (Special) to entry2.o(.ARM.Collect$$$$00000001) for _main_stk
    printfb.o(i.__0fprintf$bare) refers to printfb.o(i._printf_core) for _printf_core
    printfb.o(i.__0fprintf$bare) refers to fputc.o(i.fputc) for fputc
    printfb.o(i.__0printf$bare) refers to printfb.o(i._printf_core) for _printf_core
    printfb.o(i.__0printf$bare) refers to fputc.o(i.fputc) for fputc
    printfb.o(i.__0printf$bare) refers to stdout.o(.data) for __stdout
    printfb.o(i.__0snprintf$bare) refers to printfb.o(i._printf_core) for _printf_core
    printfb.o(i.__0snprintf$bare) refers to printfb.o(i._snputc) for _snputc
    printfb.o(i.__0sprintf$bare) refers to printfb.o(i._printf_core) for _printf_core
    printfb.o(i.__0sprintf$bare) refers to printfb.o(i._sputc) for _sputc
    printfb.o(i.__0vfprintf$bare) refers to printfb.o(i._printf_core) for _printf_core
    printfb.o(i.__0vfprintf$bare) refers to fputc.o(i.fputc) for fputc
    printfb.o(i.__0vprintf$bare) refers to printfb.o(i._printf_core) for _printf_core
    printfb.o(i.__0vprintf$bare) refers to fputc.o(i.fputc) for fputc
    printfb.o(i.__0vprintf$bare) refers to stdout.o(.data) for __stdout
    printfb.o(i.__0vsnprintf$bare) refers to printfb.o(i._printf_core) for _printf_core
    printfb.o(i.__0vsnprintf$bare) refers to printfb.o(i._snputc) for _snputc
    printfb.o(i.__0vsprintf$bare) refers to printfb.o(i._printf_core) for _printf_core
    printfb.o(i.__0vsprintf$bare) refers to printfb.o(i._sputc) for _sputc
    printf0.o(i.__0fprintf$0) refers to printf0.o(i._printf_core) for _printf_core
    printf0.o(i.__0fprintf$0) refers to fputc.o(i.fputc) for fputc
    printf0.o(i.__0printf$0) refers to printf0.o(i._printf_core) for _printf_core
    printf0.o(i.__0printf$0) refers to fputc.o(i.fputc) for fputc
    printf0.o(i.__0printf$0) refers to stdout.o(.data) for __stdout
    printf0.o(i.__0snprintf$0) refers to printf0.o(i._printf_core) for _printf_core
    printf0.o(i.__0snprintf$0) refers to printf0.o(i._snputc) for _snputc
    printf0.o(i.__0sprintf$0) refers to printf0.o(i._printf_core) for _printf_core
    printf0.o(i.__0sprintf$0) refers to printf0.o(i._sputc) for _sputc
    printf0.o(i.__0vfprintf$0) refers to printf0.o(i._printf_core) for _printf_core
    printf0.o(i.__0vfprintf$0) refers to fputc.o(i.fputc) for fputc
    printf0.o(i.__0vprintf$0) refers to printf0.o(i._printf_core) for _printf_core
    printf0.o(i.__0vprintf$0) refers to fputc.o(i.fputc) for fputc
    printf0.o(i.__0vprintf$0) refers to stdout.o(.data) for __stdout
    printf0.o(i.__0vsnprintf$0) refers to printf0.o(i._printf_core) for _printf_core
    printf0.o(i.__0vsnprintf$0) refers to printf0.o(i._snputc) for _snputc
    printf0.o(i.__0vsprintf$0) refers to printf0.o(i._printf_core) for _printf_core
    printf0.o(i.__0vsprintf$0) refers to printf0.o(i._sputc) for _sputc
    printf1.o(i.__0fprintf$1) refers to printf1.o(i._printf_core) for _printf_core
    printf1.o(i.__0fprintf$1) refers to fputc.o(i.fputc) for fputc
    printf1.o(i.__0printf$1) refers to printf1.o(i._printf_core) for _printf_core
    printf1.o(i.__0printf$1) refers to fputc.o(i.fputc) for fputc
    printf1.o(i.__0printf$1) refers to stdout.o(.data) for __stdout
    printf1.o(i.__0snprintf$1) refers to printf1.o(i._printf_core) for _printf_core
    printf1.o(i.__0snprintf$1) refers to printf1.o(i._snputc) for _snputc
    printf1.o(i.__0sprintf$1) refers to printf1.o(i._printf_core) for _printf_core
    printf1.o(i.__0sprintf$1) refers to printf1.o(i._sputc) for _sputc
    printf1.o(i.__0vfprintf$1) refers to printf1.o(i._printf_core) for _printf_core
    printf1.o(i.__0vfprintf$1) refers to fputc.o(i.fputc) for fputc
    printf1.o(i.__0vprintf$1) refers to printf1.o(i._printf_core) for _printf_core
    printf1.o(i.__0vprintf$1) refers to fputc.o(i.fputc) for fputc
    printf1.o(i.__0vprintf$1) refers to stdout.o(.data) for __stdout
    printf1.o(i.__0vsnprintf$1) refers to printf1.o(i._printf_core) for _printf_core
    printf1.o(i.__0vsnprintf$1) refers to printf1.o(i._snputc) for _snputc
    printf1.o(i.__0vsprintf$1) refers to printf1.o(i._printf_core) for _printf_core
    printf1.o(i.__0vsprintf$1) refers to printf1.o(i._sputc) for _sputc
    printf1.o(i._printf_core) refers to uidiv.o(.text) for __aeabi_uidivmod
    printf2.o(i.__0fprintf$2) refers to printf2.o(i._printf_core) for _printf_core
    printf2.o(i.__0fprintf$2) refers to fputc.o(i.fputc) for fputc
    printf2.o(i.__0printf$2) refers to printf2.o(i._printf_core) for _printf_core
    printf2.o(i.__0printf$2) refers to fputc.o(i.fputc) for fputc
    printf2.o(i.__0printf$2) refers to stdout.o(.data) for __stdout
    printf2.o(i.__0snprintf$2) refers to printf2.o(i._printf_core) for _printf_core
    printf2.o(i.__0snprintf$2) refers to printf2.o(i._snputc) for _snputc
    printf2.o(i.__0sprintf$2) refers to printf2.o(i._printf_core) for _printf_core
    printf2.o(i.__0sprintf$2) refers to printf2.o(i._sputc) for _sputc
    printf2.o(i.__0vfprintf$2) refers to printf2.o(i._printf_core) for _printf_core
    printf2.o(i.__0vfprintf$2) refers to fputc.o(i.fputc) for fputc
    printf2.o(i.__0vprintf$2) refers to printf2.o(i._printf_core) for _printf_core
    printf2.o(i.__0vprintf$2) refers to fputc.o(i.fputc) for fputc
    printf2.o(i.__0vprintf$2) refers to stdout.o(.data) for __stdout
    printf2.o(i.__0vsnprintf$2) refers to printf2.o(i._printf_core) for _printf_core
    printf2.o(i.__0vsnprintf$2) refers to printf2.o(i._snputc) for _snputc
    printf2.o(i.__0vsprintf$2) refers to printf2.o(i._printf_core) for _printf_core
    printf2.o(i.__0vsprintf$2) refers to printf2.o(i._sputc) for _sputc
    printf3.o(i.__0fprintf$3) refers to printf3.o(i._printf_core) for _printf_core
    printf3.o(i.__0fprintf$3) refers to fputc.o(i.fputc) for fputc
    printf3.o(i.__0printf$3) refers to printf3.o(i._printf_core) for _printf_core
    printf3.o(i.__0printf$3) refers to fputc.o(i.fputc) for fputc
    printf3.o(i.__0printf$3) refers to stdout.o(.data) for __stdout
    printf3.o(i.__0snprintf$3) refers to printf3.o(i._printf_core) for _printf_core
    printf3.o(i.__0snprintf$3) refers to printf3.o(i._snputc) for _snputc
    printf3.o(i.__0sprintf$3) refers to printf3.o(i._printf_core) for _printf_core
    printf3.o(i.__0sprintf$3) refers to printf3.o(i._sputc) for _sputc
    printf3.o(i.__0vfprintf$3) refers to printf3.o(i._printf_core) for _printf_core
    printf3.o(i.__0vfprintf$3) refers to fputc.o(i.fputc) for fputc
    printf3.o(i.__0vprintf$3) refers to printf3.o(i._printf_core) for _printf_core
    printf3.o(i.__0vprintf$3) refers to fputc.o(i.fputc) for fputc
    printf3.o(i.__0vprintf$3) refers to stdout.o(.data) for __stdout
    printf3.o(i.__0vsnprintf$3) refers to printf3.o(i._printf_core) for _printf_core
    printf3.o(i.__0vsnprintf$3) refers to printf3.o(i._snputc) for _snputc
    printf3.o(i.__0vsprintf$3) refers to printf3.o(i._printf_core) for _printf_core
    printf3.o(i.__0vsprintf$3) refers to printf3.o(i._sputc) for _sputc
    printf3.o(i._printf_core) refers to uidiv.o(.text) for __aeabi_uidivmod
    printf4.o(i.__0fprintf$4) refers to printf4.o(i._printf_core) for _printf_core
    printf4.o(i.__0fprintf$4) refers to fputc.o(i.fputc) for fputc
    printf4.o(i.__0printf$4) refers to printf4.o(i._printf_core) for _printf_core
    printf4.o(i.__0printf$4) refers to fputc.o(i.fputc) for fputc
    printf4.o(i.__0printf$4) refers to stdout.o(.data) for __stdout
    printf4.o(i.__0snprintf$4) refers to printf4.o(i._printf_core) for _printf_core
    printf4.o(i.__0snprintf$4) refers to printf4.o(i._snputc) for _snputc
    printf4.o(i.__0sprintf$4) refers to printf4.o(i._printf_core) for _printf_core
    printf4.o(i.__0sprintf$4) refers to printf4.o(i._sputc) for _sputc
    printf4.o(i.__0vfprintf$4) refers to printf4.o(i._printf_core) for _printf_core
    printf4.o(i.__0vfprintf$4) refers to fputc.o(i.fputc) for fputc
    printf4.o(i.__0vprintf$4) refers to printf4.o(i._printf_core) for _printf_core
    printf4.o(i.__0vprintf$4) refers to fputc.o(i.fputc) for fputc
    printf4.o(i.__0vprintf$4) refers to stdout.o(.data) for __stdout
    printf4.o(i.__0vsnprintf$4) refers to printf4.o(i._printf_core) for _printf_core
    printf4.o(i.__0vsnprintf$4) refers to printf4.o(i._snputc) for _snputc
    printf4.o(i.__0vsprintf$4) refers to printf4.o(i._printf_core) for _printf_core
    printf4.o(i.__0vsprintf$4) refers to printf4.o(i._sputc) for _sputc
    printf4.o(i._printf_core) refers to uldiv.o(.text) for __aeabi_uldivmod
    printf5.o(i.__0fprintf$5) refers to printf5.o(i._printf_core) for _printf_core
    printf5.o(i.__0fprintf$5) refers to fputc.o(i.fputc) for fputc
    printf5.o(i.__0printf$5) refers to printf5.o(i._printf_core) for _printf_core
    printf5.o(i.__0printf$5) refers to fputc.o(i.fputc) for fputc
    printf5.o(i.__0printf$5) refers to stdout.o(.data) for __stdout
    printf5.o(i.__0snprintf$5) refers to printf5.o(i._printf_core) for _printf_core
    printf5.o(i.__0snprintf$5) refers to printf5.o(i._snputc) for _snputc
    printf5.o(i.__0sprintf$5) refers to printf5.o(i._printf_core) for _printf_core
    printf5.o(i.__0sprintf$5) refers to printf5.o(i._sputc) for _sputc
    printf5.o(i.__0vfprintf$5) refers to printf5.o(i._printf_core) for _printf_core
    printf5.o(i.__0vfprintf$5) refers to fputc.o(i.fputc) for fputc
    printf5.o(i.__0vprintf$5) refers to printf5.o(i._printf_core) for _printf_core
    printf5.o(i.__0vprintf$5) refers to fputc.o(i.fputc) for fputc
    printf5.o(i.__0vprintf$5) refers to stdout.o(.data) for __stdout
    printf5.o(i.__0vsnprintf$5) refers to printf5.o(i._printf_core) for _printf_core
    printf5.o(i.__0vsnprintf$5) refers to printf5.o(i._snputc) for _snputc
    printf5.o(i.__0vsprintf$5) refers to printf5.o(i._printf_core) for _printf_core
    printf5.o(i.__0vsprintf$5) refers to printf5.o(i._sputc) for _sputc
    printf5.o(i._printf_core) refers to uldiv.o(.text) for __aeabi_uldivmod
    printf6.o(i.__0fprintf$6) refers to printf6.o(i._printf_core) for _printf_core
    printf6.o(i.__0fprintf$6) refers to fputc.o(i.fputc) for fputc
    printf6.o(i.__0printf$6) refers to printf6.o(i._printf_core) for _printf_core
    printf6.o(i.__0printf$6) refers to fputc.o(i.fputc) for fputc
    printf6.o(i.__0printf$6) refers to stdout.o(.data) for __stdout
    printf6.o(i.__0snprintf$6) refers to printf6.o(i._printf_core) for _printf_core
    printf6.o(i.__0snprintf$6) refers to printf6.o(i._snputc) for _snputc
    printf6.o(i.__0sprintf$6) refers to printf6.o(i._printf_core) for _printf_core
    printf6.o(i.__0sprintf$6) refers to printf6.o(i._sputc) for _sputc
    printf6.o(i.__0vfprintf$6) refers to printf6.o(i._printf_core) for _printf_core
    printf6.o(i.__0vfprintf$6) refers to fputc.o(i.fputc) for fputc
    printf6.o(i.__0vprintf$6) refers to printf6.o(i._printf_core) for _printf_core
    printf6.o(i.__0vprintf$6) refers to fputc.o(i.fputc) for fputc
    printf6.o(i.__0vprintf$6) refers to stdout.o(.data) for __stdout
    printf6.o(i.__0vsnprintf$6) refers to printf6.o(i._printf_core) for _printf_core
    printf6.o(i.__0vsnprintf$6) refers to printf6.o(i._snputc) for _snputc
    printf6.o(i.__0vsprintf$6) refers to printf6.o(i._printf_core) for _printf_core
    printf6.o(i.__0vsprintf$6) refers to printf6.o(i._sputc) for _sputc
    printf6.o(i._printf_core) refers to printf6.o(i._printf_pre_padding) for _printf_pre_padding
    printf6.o(i._printf_core) refers to uidiv.o(.text) for __aeabi_uidivmod
    printf6.o(i._printf_core) refers to printf6.o(i._printf_post_padding) for _printf_post_padding
    printf7.o(i.__0fprintf$7) refers to printf7.o(i._printf_core) for _printf_core
    printf7.o(i.__0fprintf$7) refers to fputc.o(i.fputc) for fputc
    printf7.o(i.__0printf$7) refers to printf7.o(i._printf_core) for _printf_core
    printf7.o(i.__0printf$7) refers to fputc.o(i.fputc) for fputc
    printf7.o(i.__0printf$7) refers to stdout.o(.data) for __stdout
    printf7.o(i.__0snprintf$7) refers to printf7.o(i._printf_core) for _printf_core
    printf7.o(i.__0snprintf$7) refers to printf7.o(i._snputc) for _snputc
    printf7.o(i.__0sprintf$7) refers to printf7.o(i._printf_core) for _printf_core
    printf7.o(i.__0sprintf$7) refers to printf7.o(i._sputc) for _sputc
    printf7.o(i.__0vfprintf$7) refers to printf7.o(i._printf_core) for _printf_core
    printf7.o(i.__0vfprintf$7) refers to fputc.o(i.fputc) for fputc
    printf7.o(i.__0vprintf$7) refers to printf7.o(i._printf_core) for _printf_core
    printf7.o(i.__0vprintf$7) refers to fputc.o(i.fputc) for fputc
    printf7.o(i.__0vprintf$7) refers to stdout.o(.data) for __stdout
    printf7.o(i.__0vsnprintf$7) refers to printf7.o(i._printf_core) for _printf_core
    printf7.o(i.__0vsnprintf$7) refers to printf7.o(i._snputc) for _snputc
    printf7.o(i.__0vsprintf$7) refers to printf7.o(i._printf_core) for _printf_core
    printf7.o(i.__0vsprintf$7) refers to printf7.o(i._sputc) for _sputc
    printf7.o(i._printf_core) refers to printf7.o(i._printf_pre_padding) for _printf_pre_padding
    printf7.o(i._printf_core) refers to uldiv.o(.text) for __aeabi_uldivmod
    printf7.o(i._printf_core) refers to printf7.o(i._printf_post_padding) for _printf_post_padding
    printf8.o(i.__0fprintf$8) refers to printf8.o(i._printf_core) for _printf_core
    printf8.o(i.__0fprintf$8) refers to fputc.o(i.fputc) for fputc
    printf8.o(i.__0printf$8) refers to printf8.o(i._printf_core) for _printf_core
    printf8.o(i.__0printf$8) refers to fputc.o(i.fputc) for fputc
    printf8.o(i.__0printf$8) refers to stdout.o(.data) for __stdout
    printf8.o(i.__0snprintf$8) refers to printf8.o(i._printf_core) for _printf_core
    printf8.o(i.__0snprintf$8) refers to printf8.o(i._snputc) for _snputc
    printf8.o(i.__0sprintf$8) refers to printf8.o(i._printf_core) for _printf_core
    printf8.o(i.__0sprintf$8) refers to printf8.o(i._sputc) for _sputc
    printf8.o(i.__0vfprintf$8) refers to printf8.o(i._printf_core) for _printf_core
    printf8.o(i.__0vfprintf$8) refers to fputc.o(i.fputc) for fputc
    printf8.o(i.__0vprintf$8) refers to printf8.o(i._printf_core) for _printf_core
    printf8.o(i.__0vprintf$8) refers to fputc.o(i.fputc) for fputc
    printf8.o(i.__0vprintf$8) refers to stdout.o(.data) for __stdout
    printf8.o(i.__0vsnprintf$8) refers to printf8.o(i._printf_core) for _printf_core
    printf8.o(i.__0vsnprintf$8) refers to printf8.o(i._snputc) for _snputc
    printf8.o(i.__0vsprintf$8) refers to printf8.o(i._printf_core) for _printf_core
    printf8.o(i.__0vsprintf$8) refers to printf8.o(i._sputc) for _sputc
    printf8.o(i._printf_core) refers to printf8.o(i._printf_pre_padding) for _printf_pre_padding
    printf8.o(i._printf_core) refers to uldiv.o(.text) for __aeabi_uldivmod
    printf8.o(i._printf_core) refers to printf8.o(i._printf_post_padding) for _printf_post_padding
    printfa.o(i.__0fprintf) refers (Special) to iusefp.o(.text) for __I$use$fp
    printfa.o(i.__0fprintf) refers to printfa.o(i._printf_core) for _printf_core
    printfa.o(i.__0fprintf) refers to fputc.o(i.fputc) for fputc
    printfa.o(i.__0printf) refers (Special) to iusefp.o(.text) for __I$use$fp
    printfa.o(i.__0printf) refers to printfa.o(i._printf_core) for _printf_core
    printfa.o(i.__0printf) refers to fputc.o(i.fputc) for fputc
    printfa.o(i.__0printf) refers to stdout.o(.data) for __stdout
    printfa.o(i.__0snprintf) refers (Special) to iusefp.o(.text) for __I$use$fp
    printfa.o(i.__0snprintf) refers to printfa.o(i._printf_core) for _printf_core
    printfa.o(i.__0snprintf) refers to printfa.o(i._snputc) for _snputc
    printfa.o(i.__0sprintf) refers (Special) to iusefp.o(.text) for __I$use$fp
    printfa.o(i.__0sprintf) refers to printfa.o(i._printf_core) for _printf_core
    printfa.o(i.__0sprintf) refers to printfa.o(i._sputc) for _sputc
    printfa.o(i.__0vfprintf) refers (Special) to iusefp.o(.text) for __I$use$fp
    printfa.o(i.__0vfprintf) refers to printfa.o(i._printf_core) for _printf_core
    printfa.o(i.__0vfprintf) refers to fputc.o(i.fputc) for fputc
    printfa.o(i.__0vprintf) refers (Special) to iusefp.o(.text) for __I$use$fp
    printfa.o(i.__0vprintf) refers to printfa.o(i._printf_core) for _printf_core
    printfa.o(i.__0vprintf) refers to fputc.o(i.fputc) for fputc
    printfa.o(i.__0vprintf) refers to stdout.o(.data) for __stdout
    printfa.o(i.__0vsnprintf) refers (Special) to iusefp.o(.text) for __I$use$fp
    printfa.o(i.__0vsnprintf) refers to printfa.o(i._printf_core) for _printf_core
    printfa.o(i.__0vsnprintf) refers to printfa.o(i._snputc) for _snputc
    printfa.o(i.__0vsprintf) refers (Special) to iusefp.o(.text) for __I$use$fp
    printfa.o(i.__0vsprintf) refers to printfa.o(i._printf_core) for _printf_core
    printfa.o(i.__0vsprintf) refers to printfa.o(i._sputc) for _sputc
    printfa.o(i._fp_digits) refers (Special) to iusefp.o(.text) for __I$use$fp
    printfa.o(i._fp_digits) refers to dmul.o(.text) for __aeabi_dmul
    printfa.o(i._fp_digits) refers to ddiv.o(.text) for __aeabi_ddiv
    printfa.o(i._fp_digits) refers to cdrcmple.o(.text) for __aeabi_cdrcmple
    printfa.o(i._fp_digits) refers to dadd.o(.text) for __aeabi_dadd
    printfa.o(i._fp_digits) refers to dfixul.o(.text) for __aeabi_d2ulz
    printfa.o(i._fp_digits) refers to uldiv.o(.text) for __aeabi_uldivmod
    printfa.o(i._printf_core) refers (Special) to iusefp.o(.text) for __I$use$fp
    printfa.o(i._printf_core) refers to printfa.o(i._printf_pre_padding) for _printf_pre_padding
    printfa.o(i._printf_core) refers to uldiv.o(.text) for __aeabi_uldivmod
    printfa.o(i._printf_core) refers to printfa.o(i._printf_post_padding) for _printf_post_padding
    printfa.o(i._printf_core) refers to printfa.o(i._fp_digits) for _fp_digits
    printfa.o(i._printf_core) refers to uidiv.o(.text) for __aeabi_uidivmod
    printfa.o(i._printf_post_padding) refers (Special) to iusefp.o(.text) for __I$use$fp
    printfa.o(i._printf_pre_padding) refers (Special) to iusefp.o(.text) for __I$use$fp
    printfa.o(i._snputc) refers (Special) to iusefp.o(.text) for __I$use$fp
    printfa.o(i._sputc) refers (Special) to iusefp.o(.text) for __I$use$fp
    entry2.o(.ARM.Collect$$$$00000001) refers to entry2.o(.ARM.Collect$$$$00002712) for __lit__00000000
    entry2.o(.ARM.Collect$$$$00002712) refers to cstartup.o(STACK) for __initial_sp
    entry2.o(__vectab_stack_and_reset_area) refers to cstartup.o(STACK) for __initial_sp
    entry2.o(__vectab_stack_and_reset_area) refers to entry.o(.ARM.Collect$$$$00000000) for __main
    entry5.o(.ARM.Collect$$$$00000004) refers to init.o(.text) for __scatterload
    entry9a.o(.ARM.Collect$$$$0000000B) refers to app.o(.text) for main
    entry9b.o(.ARM.Collect$$$$0000000C) refers to app.o(.text) for main
    fputc.o(i.fputc) refers (Special) to iusesemip.o(.text) for __I$use$semihosting$fputc
    fputc.o(i.fputc) refers (Special) to semi.o(.text) for __semihosting_library_function
    uldiv.o(.text) refers to llushr.o(.text) for __aeabi_llsr
    uldiv.o(.text) refers to llshl.o(.text) for __aeabi_llsl
    dadd.o(.text) refers to llshl.o(.text) for __aeabi_llsl
    dadd.o(.text) refers to llsshr.o(.text) for __aeabi_lasr
    dadd.o(.text) refers to depilogue.o(.text) for _double_epilogue
    dmul.o(.text) refers to depilogue.o(.text) for _double_epilogue
    ddiv.o(.text) refers to depilogue.o(.text) for _double_round
    dfixul.o(.text) refers to llushr.o(.text) for __aeabi_llsr
    dfixul.o(.text) refers to llshl.o(.text) for __aeabi_llsl
    init.o(.text) refers to entry5.o(.ARM.Collect$$$$00000004) for __main_after_scatterload
    depilogue.o(.text) refers to llshl.o(.text) for __aeabi_llsl
    depilogue.o(.text) refers to llushr.o(.text) for __aeabi_llsr


==============================================================================

Removing Unused input sections from the image.

    Removing app.o(.emb_text), (8 bytes).
    Removing app.o(.data), (5 bytes).
    Removing os_app_hooks.o(.text), (200 bytes).
    Removing system_stm32f2xx.o(.emb_text), (8 bytes).
    Removing protocol.o(.emb_text), (8 bytes).
    Removing bsp.o(.emb_text), (8 bytes).
    Removing bsp_int.o(.emb_text), (8 bytes).
    Removing bsp_ioe.o(.emb_text), (8 bytes).
    Removing bsp_ioe.o(.text), (2512 bytes).
    Removing bsp_ioe.o(.data), (16 bytes).
    Removing bsp_lcd.o(.emb_text), (8 bytes).
    Removing bsp_lcd.o(.text), (1464 bytes).
    Removing bsp_os.o(.emb_text), (8 bytes).
    Removing bsp_os.o(.text), (184 bytes).
    Removing bsp_ser.o(.emb_text), (8 bytes).
    Removing bsp_ser.o(.text), (760 bytes).
    Removing bsp_ser.o(.bss), (120 bytes).
    Removing bsp_ser.o(.data), (1 bytes).
    Removing w25qxx.o(.emb_text), (8 bytes).
    Removing w25qxx.o(.data), (2 bytes).
    Removing usart.o(.emb_text), (8 bytes).
    Removing gprs.o(.emb_text), (8 bytes).
    Removing gprs.o(.text), (1768 bytes).
    Removing gprs.o(.bss), (256 bytes).
    Removing gprs.o(.data), (7 bytes).
    Removing timer.o(.emb_text), (8 bytes).
    Removing spi.o(.emb_text), (8 bytes).
    Removing rtc.o(.emb_text), (8 bytes).
    Removing lan8720.o(.emb_text), (8 bytes).
    Removing eth.o(.emb_text), (8 bytes).
    Removing button.o(.emb_text), (8 bytes).
    Removing button.o(.text), (28 bytes).
    Removing flash.o(.emb_text), (8 bytes).
    Removing flash.o(.text), (244 bytes).
    Removing diskio.o(.emb_text), (8 bytes).
    Removing diskio.o(.text), (244 bytes).
    Removing diskio.o(.data), (2 bytes).
    Removing ff.o(.text), (13922 bytes).
    Removing ff.o(.bss), (32 bytes).
    Removing ff.o(.constdata), (100 bytes).
    Removing ff.o(.conststring), (41 bytes).
    Removing ff.o(.data), (6 bytes).
    Removing ffunicode.o(.text), (368 bytes).
    Removing ffunicode.o(.constdata), (175030 bytes).
    Removing stm32f2x7_eth.o(.emb_text), (8 bytes).
    Removing misc.o(.emb_text), (8 bytes).
    Removing stm32f2xx_adc.o(.emb_text), (8 bytes).
    Removing stm32f2xx_adc.o(.text), (1124 bytes).
    Removing stm32f2xx_crc.o(.emb_text), (8 bytes).
    Removing stm32f2xx_crc.o(.text), (72 bytes).
    Removing stm32f2xx_cryp.o(.emb_text), (8 bytes).
    Removing stm32f2xx_cryp.o(.text), (660 bytes).
    Removing stm32f2xx_cryp_aes.o(.emb_text), (8 bytes).
    Removing stm32f2xx_cryp_aes.o(.text), (1524 bytes).
    Removing stm32f2xx_cryp_des.o(.emb_text), (8 bytes).
    Removing stm32f2xx_cryp_des.o(.text), (468 bytes).
    Removing stm32f2xx_cryp_tdes.o(.emb_text), (8 bytes).
    Removing stm32f2xx_cryp_tdes.o(.text), (532 bytes).
    Removing stm32f2xx_dac.o(.emb_text), (8 bytes).
    Removing stm32f2xx_dac.o(.text), (528 bytes).
    Removing stm32f2xx_dcmi.o(.emb_text), (8 bytes).
    Removing stm32f2xx_dcmi.o(.text), (396 bytes).
    Removing stm32f2xx_dma.o(.emb_text), (8 bytes).
    Removing stm32f2xx_dma.o(.text), (936 bytes).
    Removing stm32f2xx_exti.o(.emb_text), (8 bytes).
    Removing stm32f2xx_flash.o(.emb_text), (8 bytes).
    Removing stm32f2xx_flash.o(.text), (1212 bytes).
    Removing stm32f2xx_fsmc.o(.emb_text), (8 bytes).
    Removing stm32f2xx_fsmc.o(.text), (1544 bytes).
    Removing stm32f2xx_gpio.o(.emb_text), (8 bytes).
    Removing stm32f2xx_i2c.o(.emb_text), (8 bytes).
    Removing stm32f2xx_i2c.o(.text), (1064 bytes).
    Removing stm32f2xx_iwdg.o(.emb_text), (8 bytes).
    Removing stm32f2xx_pwr.o(.emb_text), (8 bytes).
    Removing stm32f2xx_rcc.o(.emb_text), (8 bytes).
    Removing stm32f2xx_rng.o(.emb_text), (8 bytes).
    Removing stm32f2xx_rng.o(.text), (160 bytes).
    Removing stm32f2xx_rtc.o(.emb_text), (8 bytes).
    Removing stm32f2xx_spi.o(.emb_text), (8 bytes).
    Removing stm32f2xx_syscfg.o(.emb_text), (8 bytes).
    Removing stm32f2xx_tim.o(.emb_text), (8 bytes).
    Removing stm32f2xx_usart.o(.emb_text), (8 bytes).
    Removing stm32f2xx_wwdg.o(.emb_text), (8 bytes).
    Removing stm32f2xx_wwdg.o(.text), (144 bytes).
    Removing lib_math.o(.text), (128 bytes).
    Removing lib_math.o(.data), (4 bytes).
    Removing os_pend_multi.o(.text), (716 bytes).
    Removing cstartup.o(HEAP), (512 bytes).
    Removing sys_arch.o(.emb_text), (8 bytes).
    Removing rawudp.o(.emb_text), (8 bytes).
    Removing dhcp.o(.emb_text), (8 bytes).
    Removing lwip_comm_1.o(.emb_text), (8 bytes).
    Removing api_lib.o(.emb_text), (8 bytes).
    Removing api_lib.o(.text), (2660 bytes).
    Removing api_msg.o(.emb_text), (8 bytes).
    Removing api_msg.o(.text), (7348 bytes).
    Removing api_msg.o(.data), (1 bytes).
    Removing err.o(.emb_text), (8 bytes).
    Removing err.o(.text), (32 bytes).
    Removing err.o(.constdata), (68 bytes).
    Removing netbuf.o(.emb_text), (8 bytes).
    Removing netbuf.o(.text), (976 bytes).
    Removing netdb.o(.emb_text), (8 bytes).
    Removing netifapi.o(.emb_text), (8 bytes).
    Removing sockets.o(.emb_text), (8 bytes).
    Removing sockets.o(.text), (8776 bytes).
    Removing sockets.o(.bss), (80 bytes).
    Removing sockets.o(.data), (12 bytes).
    Removing tcpip.o(.emb_text), (8 bytes).
    Removing ethernet.o(.emb_text), (8 bytes).
    Removing ethernetif.o(.emb_text), (8 bytes).
    Removing def.o(.emb_text), (8 bytes).
    Removing dns.o(.emb_text), (8 bytes).
    Removing inet_chksum.o(.emb_text), (8 bytes).
    Removing init.o(.emb_text), (8 bytes).
    Removing ip.o(.emb_text), (8 bytes).
    Removing mem.o(.emb_text), (8 bytes).
    Removing memp.o(.emb_text), (8 bytes).
    Removing netif.o(.emb_text), (8 bytes).
    Removing pbuf.o(.emb_text), (8 bytes).
    Removing raw.o(.emb_text), (8 bytes).
    Removing stats.o(.emb_text), (8 bytes).
    Removing sys.o(.emb_text), (8 bytes).
    Removing sys.o(.text), (40 bytes).
    Removing tcp.o(.emb_text), (8 bytes).
    Removing tcp_in.o(.emb_text), (8 bytes).
    Removing tcp_out.o(.emb_text), (8 bytes).
    Removing timeouts.o(.emb_text), (8 bytes).
    Removing udp.o(.emb_text), (8 bytes).
    Removing autoip.o(.emb_text), (8 bytes).
    Removing dhcp_2.o(.emb_text), (8 bytes).
    Removing etharp.o(.emb_text), (8 bytes).
    Removing icmp.o(.emb_text), (8 bytes).
    Removing igmp.o(.emb_text), (8 bytes).
    Removing ip4.o(.emb_text), (8 bytes).
    Removing ip4_addr.o(.emb_text), (8 bytes).
    Removing ip4_frag.o(.emb_text), (8 bytes).
    Removing dadd.o(.text), (334 bytes).
    Removing dmul.o(.text), (228 bytes).
    Removing ddiv.o(.text), (222 bytes).
    Removing dfixul.o(.text), (48 bytes).
    Removing cdrcmple.o(.text), (48 bytes).
    Removing depilogue.o(.text), (186 bytes).

143 unused section(s) (total 230775 bytes) removed from the image.

==============================================================================

Image Symbol Table

    Local Symbols

    Symbol Name                              Value     Ov Type        Size  Object(Section)

    ../clib/../cmprslib/zerorunl2.c          0x00000000   Number         0  __dczerorl2.o ABSOLUTE
    ../clib/microlib/division.c              0x00000000   Number         0  uidiv.o ABSOLUTE
    ../clib/microlib/division.c              0x00000000   Number         0  uldiv.o ABSOLUTE
    ../clib/microlib/init/entry.s            0x00000000   Number         0  entry2.o ABSOLUTE
    ../clib/microlib/init/entry.s            0x00000000   Number         0  entry8a.o ABSOLUTE
    ../clib/microlib/init/entry.s            0x00000000   Number         0  entry.o ABSOLUTE
    ../clib/microlib/init/entry.s            0x00000000   Number         0  entry9a.o ABSOLUTE
    ../clib/microlib/init/entry.s            0x00000000   Number         0  entry11a.o ABSOLUTE
    ../clib/microlib/init/entry.s            0x00000000   Number         0  entry9b.o ABSOLUTE
    ../clib/microlib/init/entry.s            0x00000000   Number         0  entry5.o ABSOLUTE
    ../clib/microlib/init/entry.s            0x00000000   Number         0  entry10a.o ABSOLUTE
    ../clib/microlib/init/entry.s            0x00000000   Number         0  entry7b.o ABSOLUTE
    ../clib/microlib/init/entry.s            0x00000000   Number         0  entry10b.o ABSOLUTE
    ../clib/microlib/init/entry.s            0x00000000   Number         0  entry7a.o ABSOLUTE
    ../clib/microlib/init/entry.s            0x00000000   Number         0  entry11b.o ABSOLUTE
    ../clib/microlib/init/entry.s            0x00000000   Number         0  entry8b.o ABSOLUTE
    ../clib/microlib/longlong.c              0x00000000   Number         0  llushr.o ABSOLUTE
    ../clib/microlib/longlong.c              0x00000000   Number         0  llshl.o ABSOLUTE
    ../clib/microlib/longlong.c              0x00000000   Number         0  llsshr.o ABSOLUTE
    ../clib/microlib/printf/printf.c         0x00000000   Number         0  printf3.o ABSOLUTE
    ../clib/microlib/printf/printf.c         0x00000000   Number         0  printf1.o ABSOLUTE
    ../clib/microlib/printf/printf.c         0x00000000   Number         0  printf0.o ABSOLUTE
    ../clib/microlib/printf/printf.c         0x00000000   Number         0  printf4.o ABSOLUTE
    ../clib/microlib/printf/printf.c         0x00000000   Number         0  printfa.o ABSOLUTE
    ../clib/microlib/printf/printf.c         0x00000000   Number         0  printfb.o ABSOLUTE
    ../clib/microlib/printf/printf.c         0x00000000   Number         0  printf7.o ABSOLUTE
    ../clib/microlib/printf/printf.c         0x00000000   Number         0  printf6.o ABSOLUTE
    ../clib/microlib/printf/printf.c         0x00000000   Number         0  printf8.o ABSOLUTE
    ../clib/microlib/printf/printf.c         0x00000000   Number         0  printf5.o ABSOLUTE
    ../clib/microlib/printf/printf.c         0x00000000   Number         0  printf2.o ABSOLUTE
    ../clib/microlib/printf/stubs.s          0x00000000   Number         0  stubs.o ABSOLUTE
    ../clib/microlib/stdio/fputc.c           0x00000000   Number         0  fputc.o ABSOLUTE
    ../clib/microlib/stdio/semi.s            0x00000000   Number         0  semi.o ABSOLUTE
    ../clib/microlib/stdio/streams.c         0x00000000   Number         0  stdout.o ABSOLUTE
    ../clib/microlib/string/memcmp.c         0x00000000   Number         0  memcmp.o ABSOLUTE
    ../clib/microlib/string/memcpy.c         0x00000000   Number         0  memcpya.o ABSOLUTE
    ../clib/microlib/string/memcpy.c         0x00000000   Number         0  memcpyb.o ABSOLUTE
    ../clib/microlib/string/memset.c         0x00000000   Number         0  memseta.o ABSOLUTE
    ../clib/microlib/string/strcmp.c         0x00000000   Number         0  strcmp.o ABSOLUTE
    ../clib/microlib/string/strlen.c         0x00000000   Number         0  strlen.o ABSOLUTE
    ../clib/microlib/string/strncmp.c        0x00000000   Number         0  strncmp.o ABSOLUTE
    ../clib/microlib/string/strstr.c         0x00000000   Number         0  strstr.o ABSOLUTE
    ../clib/microlib/stubs.s                 0x00000000   Number         0  iusesemip.o ABSOLUTE
    ../clib/microlib/stubs.s                 0x00000000   Number         0  iusefp.o ABSOLUTE
    ../fplib/microlib/fpadd.c                0x00000000   Number         0  dadd.o ABSOLUTE
    ../fplib/microlib/fpdiv.c                0x00000000   Number         0  ddiv.o ABSOLUTE
    ../fplib/microlib/fpepilogue.c           0x00000000   Number         0  depilogue.o ABSOLUTE
    ../fplib/microlib/fpfix.c                0x00000000   Number         0  dfixul.o ABSOLUTE
    ../fplib/microlib/fpmul.c                0x00000000   Number         0  dmul.o ABSOLUTE
    ..\FATFS\diskio.c                        0x00000000   Number         0  diskio.o ABSOLUTE
    ..\FATFS\ff.c                            0x00000000   Number         0  ff.o ABSOLUTE
    ..\FATFS\ffsystem.c                      0x00000000   Number         0  ffsystem.o ABSOLUTE
    ..\FATFS\ffunicode.c                     0x00000000   Number         0  ffunicode.o ABSOLUTE
    ..\Libraries\CMSIS\Device\system_stm32f2xx.c 0x00000000   Number         0  system_stm32f2xx.o ABSOLUTE
    ..\Libraries\STM32F2x7_ETH_Driver\src\stm32f2x7_eth.c 0x00000000   Number         0  stm32f2x7_eth.o ABSOLUTE
    ..\Libraries\STM32F2xx_StdPeriph_Driver\src\misc.c 0x00000000   Number         0  misc.o ABSOLUTE
    ..\Libraries\STM32F2xx_StdPeriph_Driver\src\stm32f2xx_adc.c 0x00000000   Number         0  stm32f2xx_adc.o ABSOLUTE
    ..\Libraries\STM32F2xx_StdPeriph_Driver\src\stm32f2xx_crc.c 0x00000000   Number         0  stm32f2xx_crc.o ABSOLUTE
    ..\Libraries\STM32F2xx_StdPeriph_Driver\src\stm32f2xx_cryp.c 0x00000000   Number         0  stm32f2xx_cryp.o ABSOLUTE
    ..\Libraries\STM32F2xx_StdPeriph_Driver\src\stm32f2xx_cryp_aes.c 0x00000000   Number         0  stm32f2xx_cryp_aes.o ABSOLUTE
    ..\Libraries\STM32F2xx_StdPeriph_Driver\src\stm32f2xx_cryp_des.c 0x00000000   Number         0  stm32f2xx_cryp_des.o ABSOLUTE
    ..\Libraries\STM32F2xx_StdPeriph_Driver\src\stm32f2xx_cryp_tdes.c 0x00000000   Number         0  stm32f2xx_cryp_tdes.o ABSOLUTE
    ..\Libraries\STM32F2xx_StdPeriph_Driver\src\stm32f2xx_dac.c 0x00000000   Number         0  stm32f2xx_dac.o ABSOLUTE
    ..\Libraries\STM32F2xx_StdPeriph_Driver\src\stm32f2xx_dcmi.c 0x00000000   Number         0  stm32f2xx_dcmi.o ABSOLUTE
    ..\Libraries\STM32F2xx_StdPeriph_Driver\src\stm32f2xx_dma.c 0x00000000   Number         0  stm32f2xx_dma.o ABSOLUTE
    ..\Libraries\STM32F2xx_StdPeriph_Driver\src\stm32f2xx_exti.c 0x00000000   Number         0  stm32f2xx_exti.o ABSOLUTE
    ..\Libraries\STM32F2xx_StdPeriph_Driver\src\stm32f2xx_flash.c 0x00000000   Number         0  stm32f2xx_flash.o ABSOLUTE
    ..\Libraries\STM32F2xx_StdPeriph_Driver\src\stm32f2xx_fsmc.c 0x00000000   Number         0  stm32f2xx_fsmc.o ABSOLUTE
    ..\Libraries\STM32F2xx_StdPeriph_Driver\src\stm32f2xx_gpio.c 0x00000000   Number         0  stm32f2xx_gpio.o ABSOLUTE
    ..\Libraries\STM32F2xx_StdPeriph_Driver\src\stm32f2xx_i2c.c 0x00000000   Number         0  stm32f2xx_i2c.o ABSOLUTE
    ..\Libraries\STM32F2xx_StdPeriph_Driver\src\stm32f2xx_iwdg.c 0x00000000   Number         0  stm32f2xx_iwdg.o ABSOLUTE
    ..\Libraries\STM32F2xx_StdPeriph_Driver\src\stm32f2xx_pwr.c 0x00000000   Number         0  stm32f2xx_pwr.o ABSOLUTE
    ..\Libraries\STM32F2xx_StdPeriph_Driver\src\stm32f2xx_rcc.c 0x00000000   Number         0  stm32f2xx_rcc.o ABSOLUTE
    ..\Libraries\STM32F2xx_StdPeriph_Driver\src\stm32f2xx_rng.c 0x00000000   Number         0  stm32f2xx_rng.o ABSOLUTE
    ..\Libraries\STM32F2xx_StdPeriph_Driver\src\stm32f2xx_rtc.c 0x00000000   Number         0  stm32f2xx_rtc.o ABSOLUTE
    ..\Libraries\STM32F2xx_StdPeriph_Driver\src\stm32f2xx_spi.c 0x00000000   Number         0  stm32f2xx_spi.o ABSOLUTE
    ..\Libraries\STM32F2xx_StdPeriph_Driver\src\stm32f2xx_syscfg.c 0x00000000   Number         0  stm32f2xx_syscfg.o ABSOLUTE
    ..\Libraries\STM32F2xx_StdPeriph_Driver\src\stm32f2xx_tim.c 0x00000000   Number         0  stm32f2xx_tim.o ABSOLUTE
    ..\Libraries\STM32F2xx_StdPeriph_Driver\src\stm32f2xx_usart.c 0x00000000   Number         0  stm32f2xx_usart.o ABSOLUTE
    ..\Libraries\STM32F2xx_StdPeriph_Driver\src\stm32f2xx_wwdg.c 0x00000000   Number         0  stm32f2xx_wwdg.o ABSOLUTE
    ..\UCOSIII\uC-CPU\ARM-Cortex-M3\RealView\cpu_a.asm 0x00000000   Number         0  cpu_a.o ABSOLUTE
    ..\UCOSIII\uC-CPU\ARM-Cortex-M3\RealView\cpu_c.c 0x00000000   Number         0  cpu_c.o ABSOLUTE
    ..\UCOSIII\uC-CPU\cpu_core.c             0x00000000   Number         0  cpu_core.o ABSOLUTE
    ..\UCOSIII\uC-LIB\Ports\ARM-Cortex-M3\RealView\lib_mem_a.asm 0x00000000   Number         0  lib_mem_a.o ABSOLUTE
    ..\UCOSIII\uC-LIB\lib_ascii.c            0x00000000   Number         0  lib_ascii.o ABSOLUTE
    ..\UCOSIII\uC-LIB\lib_math.c             0x00000000   Number         0  lib_math.o ABSOLUTE
    ..\UCOSIII\uC-LIB\lib_mem.c              0x00000000   Number         0  lib_mem.o ABSOLUTE
    ..\UCOSIII\uC-LIB\lib_str.c              0x00000000   Number         0  lib_str.o ABSOLUTE
    ..\UCOSIII\uCOS-III\Ports\ARM-Cortex-M3\Generic\RealView\os_cpu_a.s 0x00000000   Number         0  os_cpu_a.o ABSOLUTE
    ..\UCOSIII\uCOS-III\Ports\ARM-Cortex-M3\Generic\RealView\os_cpu_c.c 0x00000000   Number         0  os_cpu_c.o ABSOLUTE
    ..\UCOSIII\uCOS-III\Source\os_cfg_app.c  0x00000000   Number         0  os_cfg_app.o ABSOLUTE
    ..\UCOSIII\uCOS-III\Source\os_core.c     0x00000000   Number         0  os_core.o ABSOLUTE
    ..\UCOSIII\uCOS-III\Source\os_dbg.c      0x00000000   Number         0  os_dbg.o ABSOLUTE
    ..\UCOSIII\uCOS-III\Source\os_flag.c     0x00000000   Number         0  os_flag.o ABSOLUTE
    ..\UCOSIII\uCOS-III\Source\os_int.c      0x00000000   Number         0  os_int.o ABSOLUTE
    ..\UCOSIII\uCOS-III\Source\os_mem.c      0x00000000   Number         0  os_mem.o ABSOLUTE
    ..\UCOSIII\uCOS-III\Source\os_msg.c      0x00000000   Number         0  os_msg.o ABSOLUTE
    ..\UCOSIII\uCOS-III\Source\os_mutex.c    0x00000000   Number         0  os_mutex.o ABSOLUTE
    ..\UCOSIII\uCOS-III\Source\os_pend_multi.c 0x00000000   Number         0  os_pend_multi.o ABSOLUTE
    ..\UCOSIII\uCOS-III\Source\os_prio.c     0x00000000   Number         0  os_prio.o ABSOLUTE
    ..\UCOSIII\uCOS-III\Source\os_q.c        0x00000000   Number         0  os_q.o ABSOLUTE
    ..\UCOSIII\uCOS-III\Source\os_sem.c      0x00000000   Number         0  os_sem.o ABSOLUTE
    ..\UCOSIII\uCOS-III\Source\os_stat.c     0x00000000   Number         0  os_stat.o ABSOLUTE
    ..\UCOSIII\uCOS-III\Source\os_task.c     0x00000000   Number         0  os_task.o ABSOLUTE
    ..\UCOSIII\uCOS-III\Source\os_tick.c     0x00000000   Number         0  os_tick.o ABSOLUTE
    ..\UCOSIII\uCOS-III\Source\os_time.c     0x00000000   Number         0  os_time.o ABSOLUTE
    ..\UCOSIII\uCOS-III\Source\os_tmr.c      0x00000000   Number         0  os_tmr.o ABSOLUTE
    ..\UCOSIII\uCOS-III\Source\os_var.c      0x00000000   Number         0  os_var.o ABSOLUTE
    ..\\FATFS\\diskio.c                      0x00000000   Number         0  diskio.o ABSOLUTE
    ..\\Libraries\\CMSIS\\Device\\system_stm32f2xx.c 0x00000000   Number         0  system_stm32f2xx.o ABSOLUTE
    ..\\Libraries\\STM32F2x7_ETH_Driver\\src\\stm32f2x7_eth.c 0x00000000   Number         0  stm32f2x7_eth.o ABSOLUTE
    ..\\Libraries\\STM32F2xx_StdPeriph_Driver\\src\\misc.c 0x00000000   Number         0  misc.o ABSOLUTE
    ..\\Libraries\\STM32F2xx_StdPeriph_Driver\\src\\stm32f2xx_adc.c 0x00000000   Number         0  stm32f2xx_adc.o ABSOLUTE
    ..\\Libraries\\STM32F2xx_StdPeriph_Driver\\src\\stm32f2xx_crc.c 0x00000000   Number         0  stm32f2xx_crc.o ABSOLUTE
    ..\\Libraries\\STM32F2xx_StdPeriph_Driver\\src\\stm32f2xx_cryp.c 0x00000000   Number         0  stm32f2xx_cryp.o ABSOLUTE
    ..\\Libraries\\STM32F2xx_StdPeriph_Driver\\src\\stm32f2xx_cryp_aes.c 0x00000000   Number         0  stm32f2xx_cryp_aes.o ABSOLUTE
    ..\\Libraries\\STM32F2xx_StdPeriph_Driver\\src\\stm32f2xx_cryp_des.c 0x00000000   Number         0  stm32f2xx_cryp_des.o ABSOLUTE
    ..\\Libraries\\STM32F2xx_StdPeriph_Driver\\src\\stm32f2xx_cryp_tdes.c 0x00000000   Number         0  stm32f2xx_cryp_tdes.o ABSOLUTE
    ..\\Libraries\\STM32F2xx_StdPeriph_Driver\\src\\stm32f2xx_dac.c 0x00000000   Number         0  stm32f2xx_dac.o ABSOLUTE
    ..\\Libraries\\STM32F2xx_StdPeriph_Driver\\src\\stm32f2xx_dcmi.c 0x00000000   Number         0  stm32f2xx_dcmi.o ABSOLUTE
    ..\\Libraries\\STM32F2xx_StdPeriph_Driver\\src\\stm32f2xx_dma.c 0x00000000   Number         0  stm32f2xx_dma.o ABSOLUTE
    ..\\Libraries\\STM32F2xx_StdPeriph_Driver\\src\\stm32f2xx_exti.c 0x00000000   Number         0  stm32f2xx_exti.o ABSOLUTE
    ..\\Libraries\\STM32F2xx_StdPeriph_Driver\\src\\stm32f2xx_flash.c 0x00000000   Number         0  stm32f2xx_flash.o ABSOLUTE
    ..\\Libraries\\STM32F2xx_StdPeriph_Driver\\src\\stm32f2xx_fsmc.c 0x00000000   Number         0  stm32f2xx_fsmc.o ABSOLUTE
    ..\\Libraries\\STM32F2xx_StdPeriph_Driver\\src\\stm32f2xx_gpio.c 0x00000000   Number         0  stm32f2xx_gpio.o ABSOLUTE
    ..\\Libraries\\STM32F2xx_StdPeriph_Driver\\src\\stm32f2xx_i2c.c 0x00000000   Number         0  stm32f2xx_i2c.o ABSOLUTE
    ..\\Libraries\\STM32F2xx_StdPeriph_Driver\\src\\stm32f2xx_iwdg.c 0x00000000   Number         0  stm32f2xx_iwdg.o ABSOLUTE
    ..\\Libraries\\STM32F2xx_StdPeriph_Driver\\src\\stm32f2xx_pwr.c 0x00000000   Number         0  stm32f2xx_pwr.o ABSOLUTE
    ..\\Libraries\\STM32F2xx_StdPeriph_Driver\\src\\stm32f2xx_rcc.c 0x00000000   Number         0  stm32f2xx_rcc.o ABSOLUTE
    ..\\Libraries\\STM32F2xx_StdPeriph_Driver\\src\\stm32f2xx_rng.c 0x00000000   Number         0  stm32f2xx_rng.o ABSOLUTE
    ..\\Libraries\\STM32F2xx_StdPeriph_Driver\\src\\stm32f2xx_rtc.c 0x00000000   Number         0  stm32f2xx_rtc.o ABSOLUTE
    ..\\Libraries\\STM32F2xx_StdPeriph_Driver\\src\\stm32f2xx_spi.c 0x00000000   Number         0  stm32f2xx_spi.o ABSOLUTE
    ..\\Libraries\\STM32F2xx_StdPeriph_Driver\\src\\stm32f2xx_syscfg.c 0x00000000   Number         0  stm32f2xx_syscfg.o ABSOLUTE
    ..\\Libraries\\STM32F2xx_StdPeriph_Driver\\src\\stm32f2xx_tim.c 0x00000000   Number         0  stm32f2xx_tim.o ABSOLUTE
    ..\\Libraries\\STM32F2xx_StdPeriph_Driver\\src\\stm32f2xx_usart.c 0x00000000   Number         0  stm32f2xx_usart.o ABSOLUTE
    ..\\Libraries\\STM32F2xx_StdPeriph_Driver\\src\\stm32f2xx_wwdg.c 0x00000000   Number         0  stm32f2xx_wwdg.o ABSOLUTE
    ..\\app\\app.c                           0x00000000   Number         0  app.o ABSOLUTE
    ..\\app\\protocol.c                      0x00000000   Number         0  protocol.o ABSOLUTE
    ..\\bsp\\bsp.c                           0x00000000   Number         0  bsp.o ABSOLUTE
    ..\\bsp\\bsp_int.c                       0x00000000   Number         0  bsp_int.o ABSOLUTE
    ..\\bsp\\bsp_ioe.c                       0x00000000   Number         0  bsp_ioe.o ABSOLUTE
    ..\\bsp\\bsp_lcd.c                       0x00000000   Number         0  bsp_lcd.o ABSOLUTE
    ..\\bsp\\bsp_os.c                        0x00000000   Number         0  bsp_os.o ABSOLUTE
    ..\\bsp\\bsp_ser.c                       0x00000000   Number         0  bsp_ser.o ABSOLUTE
    ..\\driver\\button.c                     0x00000000   Number         0  button.o ABSOLUTE
    ..\\driver\\eth.c                        0x00000000   Number         0  eth.o ABSOLUTE
    ..\\driver\\flash.c                      0x00000000   Number         0  flash.o ABSOLUTE
    ..\\driver\\gprs.c                       0x00000000   Number         0  gprs.o ABSOLUTE
    ..\\driver\\lan8720.c                    0x00000000   Number         0  lan8720.o ABSOLUTE
    ..\\driver\\rtc.c                        0x00000000   Number         0  rtc.o ABSOLUTE
    ..\\driver\\spi.c                        0x00000000   Number         0  spi.o ABSOLUTE
    ..\\driver\\timer.c                      0x00000000   Number         0  timer.o ABSOLUTE
    ..\\driver\\usart.c                      0x00000000   Number         0  usart.o ABSOLUTE
    ..\\driver\\w25qxx.c                     0x00000000   Number         0  w25qxx.o ABSOLUTE
    ..\\lwip\\api\\api_lib.c                 0x00000000   Number         0  api_lib.o ABSOLUTE
    ..\\lwip\\api\\api_msg.c                 0x00000000   Number         0  api_msg.o ABSOLUTE
    ..\\lwip\\api\\err.c                     0x00000000   Number         0  err.o ABSOLUTE
    ..\\lwip\\api\\netbuf.c                  0x00000000   Number         0  netbuf.o ABSOLUTE
    ..\\lwip\\api\\netdb.c                   0x00000000   Number         0  netdb.o ABSOLUTE
    ..\\lwip\\api\\netifapi.c                0x00000000   Number         0  netifapi.o ABSOLUTE
    ..\\lwip\\api\\sockets.c                 0x00000000   Number         0  sockets.o ABSOLUTE
    ..\\lwip\\api\\tcpip.c                   0x00000000   Number         0  tcpip.o ABSOLUTE
    ..\\lwip\\apps\\dhcp.c                   0x00000000   Number         0  dhcp.o ABSOLUTE
    ..\\lwip\\apps\\lwip_comm.c              0x00000000   Number         0  lwip_comm_1.o ABSOLUTE
    ..\\lwip\\apps\\rawudp.c                 0x00000000   Number         0  rawudp.o ABSOLUTE
    ..\\lwip\\arch\\sys_arch.c               0x00000000   Number         0  sys_arch.o ABSOLUTE
    ..\\lwip\\core\\def.c                    0x00000000   Number         0  def.o ABSOLUTE
    ..\\lwip\\core\\dns.c                    0x00000000   Number         0  dns.o ABSOLUTE
    ..\\lwip\\core\\inet_chksum.c            0x00000000   Number         0  inet_chksum.o ABSOLUTE
    ..\\lwip\\core\\init.c                   0x00000000   Number         0  init.o ABSOLUTE
    ..\\lwip\\core\\ip.c                     0x00000000   Number         0  ip.o ABSOLUTE
    ..\\lwip\\core\\ipv4\\autoip.c           0x00000000   Number         0  autoip.o ABSOLUTE
    ..\\lwip\\core\\ipv4\\dhcp.c             0x00000000   Number         0  dhcp_2.o ABSOLUTE
    ..\\lwip\\core\\ipv4\\etharp.c           0x00000000   Number         0  etharp.o ABSOLUTE
    ..\\lwip\\core\\ipv4\\icmp.c             0x00000000   Number         0  icmp.o ABSOLUTE
    ..\\lwip\\core\\ipv4\\igmp.c             0x00000000   Number         0  igmp.o ABSOLUTE
    ..\\lwip\\core\\ipv4\\ip4.c              0x00000000   Number         0  ip4.o ABSOLUTE
    ..\\lwip\\core\\ipv4\\ip4_addr.c         0x00000000   Number         0  ip4_addr.o ABSOLUTE
    ..\\lwip\\core\\ipv4\\ip4_frag.c         0x00000000   Number         0  ip4_frag.o ABSOLUTE
    ..\\lwip\\core\\mem.c                    0x00000000   Number         0  mem.o ABSOLUTE
    ..\\lwip\\core\\memp.c                   0x00000000   Number         0  memp.o ABSOLUTE
    ..\\lwip\\core\\netif.c                  0x00000000   Number         0  netif.o ABSOLUTE
    ..\\lwip\\core\\pbuf.c                   0x00000000   Number         0  pbuf.o ABSOLUTE
    ..\\lwip\\core\\raw.c                    0x00000000   Number         0  raw.o ABSOLUTE
    ..\\lwip\\core\\stats.c                  0x00000000   Number         0  stats.o ABSOLUTE
    ..\\lwip\\core\\sys.c                    0x00000000   Number         0  sys.o ABSOLUTE
    ..\\lwip\\core\\tcp.c                    0x00000000   Number         0  tcp.o ABSOLUTE
    ..\\lwip\\core\\tcp_in.c                 0x00000000   Number         0  tcp_in.o ABSOLUTE
    ..\\lwip\\core\\tcp_out.c                0x00000000   Number         0  tcp_out.o ABSOLUTE
    ..\\lwip\\core\\timeouts.c               0x00000000   Number         0  timeouts.o ABSOLUTE
    ..\\lwip\\core\\udp.c                    0x00000000   Number         0  udp.o ABSOLUTE
    ..\\lwip\\netif\\ethernet.c              0x00000000   Number         0  ethernet.o ABSOLUTE
    ..\\lwip\\netif\\ethernetif.c            0x00000000   Number         0  ethernetif.o ABSOLUTE
    ..\app\app.c                             0x00000000   Number         0  app.o ABSOLUTE
    ..\app\cstartup.s                        0x00000000   Number         0  cstartup.o ABSOLUTE
    ..\app\os_app_hooks.c                    0x00000000   Number         0  os_app_hooks.o ABSOLUTE
    ..\app\protocol.c                        0x00000000   Number         0  protocol.o ABSOLUTE
    ..\bsp\bsp.c                             0x00000000   Number         0  bsp.o ABSOLUTE
    ..\bsp\bsp_int.c                         0x00000000   Number         0  bsp_int.o ABSOLUTE
    ..\bsp\bsp_ioe.c                         0x00000000   Number         0  bsp_ioe.o ABSOLUTE
    ..\bsp\bsp_lcd.c                         0x00000000   Number         0  bsp_lcd.o ABSOLUTE
    ..\bsp\bsp_os.c                          0x00000000   Number         0  bsp_os.o ABSOLUTE
    ..\bsp\bsp_ser.c                         0x00000000   Number         0  bsp_ser.o ABSOLUTE
    ..\driver\button.c                       0x00000000   Number         0  button.o ABSOLUTE
    ..\driver\eth.c                          0x00000000   Number         0  eth.o ABSOLUTE
    ..\driver\flash.c                        0x00000000   Number         0  flash.o ABSOLUTE
    ..\driver\gprs.c                         0x00000000   Number         0  gprs.o ABSOLUTE
    ..\driver\lan8720.c                      0x00000000   Number         0  lan8720.o ABSOLUTE
    ..\driver\rtc.c                          0x00000000   Number         0  rtc.o ABSOLUTE
    ..\driver\spi.c                          0x00000000   Number         0  spi.o ABSOLUTE
    ..\driver\timer.c                        0x00000000   Number         0  timer.o ABSOLUTE
    ..\driver\usart.c                        0x00000000   Number         0  usart.o ABSOLUTE
    ..\driver\w25qxx.c                       0x00000000   Number         0  w25qxx.o ABSOLUTE
    ..\lwip\api\api_lib.c                    0x00000000   Number         0  api_lib.o ABSOLUTE
    ..\lwip\api\api_msg.c                    0x00000000   Number         0  api_msg.o ABSOLUTE
    ..\lwip\api\err.c                        0x00000000   Number         0  err.o ABSOLUTE
    ..\lwip\api\netbuf.c                     0x00000000   Number         0  netbuf.o ABSOLUTE
    ..\lwip\api\netdb.c                      0x00000000   Number         0  netdb.o ABSOLUTE
    ..\lwip\api\netifapi.c                   0x00000000   Number         0  netifapi.o ABSOLUTE
    ..\lwip\api\sockets.c                    0x00000000   Number         0  sockets.o ABSOLUTE
    ..\lwip\api\tcpip.c                      0x00000000   Number         0  tcpip.o ABSOLUTE
    ..\lwip\apps\dhcp.c                      0x00000000   Number         0  dhcp.o ABSOLUTE
    ..\lwip\apps\lwip_comm.c                 0x00000000   Number         0  lwip_comm_1.o ABSOLUTE
    ..\lwip\apps\rawudp.c                    0x00000000   Number         0  rawudp.o ABSOLUTE
    ..\lwip\arch\sys_arch.c                  0x00000000   Number         0  sys_arch.o ABSOLUTE
    ..\lwip\core\def.c                       0x00000000   Number         0  def.o ABSOLUTE
    ..\lwip\core\dns.c                       0x00000000   Number         0  dns.o ABSOLUTE
    ..\lwip\core\inet_chksum.c               0x00000000   Number         0  inet_chksum.o ABSOLUTE
    ..\lwip\core\init.c                      0x00000000   Number         0  init.o ABSOLUTE
    ..\lwip\core\ip.c                        0x00000000   Number         0  ip.o ABSOLUTE
    ..\lwip\core\ipv4\autoip.c               0x00000000   Number         0  autoip.o ABSOLUTE
    ..\lwip\core\ipv4\dhcp.c                 0x00000000   Number         0  dhcp_2.o ABSOLUTE
    ..\lwip\core\ipv4\etharp.c               0x00000000   Number         0  etharp.o ABSOLUTE
    ..\lwip\core\ipv4\icmp.c                 0x00000000   Number         0  icmp.o ABSOLUTE
    ..\lwip\core\ipv4\igmp.c                 0x00000000   Number         0  igmp.o ABSOLUTE
    ..\lwip\core\ipv4\ip4.c                  0x00000000   Number         0  ip4.o ABSOLUTE
    ..\lwip\core\ipv4\ip4_addr.c             0x00000000   Number         0  ip4_addr.o ABSOLUTE
    ..\lwip\core\ipv4\ip4_frag.c             0x00000000   Number         0  ip4_frag.o ABSOLUTE
    ..\lwip\core\mem.c                       0x00000000   Number         0  mem.o ABSOLUTE
    ..\lwip\core\memp.c                      0x00000000   Number         0  memp.o ABSOLUTE
    ..\lwip\core\netif.c                     0x00000000   Number         0  netif.o ABSOLUTE
    ..\lwip\core\pbuf.c                      0x00000000   Number         0  pbuf.o ABSOLUTE
    ..\lwip\core\raw.c                       0x00000000   Number         0  raw.o ABSOLUTE
    ..\lwip\core\stats.c                     0x00000000   Number         0  stats.o ABSOLUTE
    ..\lwip\core\sys.c                       0x00000000   Number         0  sys.o ABSOLUTE
    ..\lwip\core\tcp.c                       0x00000000   Number         0  tcp.o ABSOLUTE
    ..\lwip\core\tcp_in.c                    0x00000000   Number         0  tcp_in.o ABSOLUTE
    ..\lwip\core\tcp_out.c                   0x00000000   Number         0  tcp_out.o ABSOLUTE
    ..\lwip\core\timeouts.c                  0x00000000   Number         0  timeouts.o ABSOLUTE
    ..\lwip\core\udp.c                       0x00000000   Number         0  udp.o ABSOLUTE
    ..\lwip\netif\ethernet.c                 0x00000000   Number         0  ethernet.o ABSOLUTE
    ..\lwip\netif\ethernetif.c               0x00000000   Number         0  ethernetif.o ABSOLUTE
    cdrcmple.s                               0x00000000   Number         0  cdrcmple.o ABSOLUTE
    dc.s                                     0x00000000   Number         0  dc.o ABSOLUTE
    handlers.s                               0x00000000   Number         0  handlers.o ABSOLUTE
    init.s                                   0x00000000   Number         0  init.o ABSOLUTE
    RESET                                    0x08000000   Section      388  cstartup.o(RESET)
    .ARM.Collect$$$$00000000                 0x08000184   Section        0  entry.o(.ARM.Collect$$$$00000000)
    .ARM.Collect$$$$00000001                 0x08000184   Section        4  entry2.o(.ARM.Collect$$$$00000001)
    .ARM.Collect$$$$00000004                 0x08000188   Section        4  entry5.o(.ARM.Collect$$$$00000004)
    .ARM.Collect$$$$00000008                 0x0800018c   Section        0  entry7b.o(.ARM.Collect$$$$00000008)
    .ARM.Collect$$$$0000000A                 0x0800018c   Section        0  entry8b.o(.ARM.Collect$$$$0000000A)
    .ARM.Collect$$$$0000000B                 0x0800018c   Section        8  entry9a.o(.ARM.Collect$$$$0000000B)
    .ARM.Collect$$$$0000000D                 0x08000194   Section        0  entry10a.o(.ARM.Collect$$$$0000000D)
    .ARM.Collect$$$$0000000F                 0x08000194   Section        0  entry11a.o(.ARM.Collect$$$$0000000F)
    .ARM.Collect$$$$00002712                 0x08000194   Section        4  entry2.o(.ARM.Collect$$$$00002712)
    __lit__00000000                          0x08000194   Data           4  entry2.o(.ARM.Collect$$$$00002712)
    .text                                    0x08000198   Section        0  app.o(.text)
    eth_init_task_fun                        0x08000199   Thumb Code    68  app.o(.text)
    usart3_task_fun                          0x080001dd   Thumb Code    42  app.o(.text)
    led1_task_fun                            0x08000207   Thumb Code    66  app.o(.text)
    led0_task_fun                            0x08000249   Thumb Code    54  app.o(.text)
    AppTaskCreate                            0x0800027f   Thumb Code   214  app.o(.text)
    AppObjCreate                             0x08000377   Thumb Code   116  app.o(.text)
    AppTaskStart                             0x080003eb   Thumb Code    70  app.o(.text)
    tcpip_task_fun                           0x080004a3   Thumb Code    20  app.o(.text)
    .text                                    0x080005bc   Section        0  system_stm32f2xx.o(.text)
    SetSysClock                              0x080005bd   Thumb Code   192  system_stm32f2xx.o(.text)
    .text                                    0x0800079c   Section        0  protocol.o(.text)
    protocol_task_fun                        0x08000e07   Thumb Code   118  protocol.o(.text)
    .text                                    0x08000f64   Section        0  bsp.o(.text)
    .text                                    0x080015b4   Section        0  bsp_int.o(.text)
    BSP_IntHandlerDummy                      0x0800164d   Thumb Code     2  bsp_int.o(.text)
    BSP_IntHandler                           0x08001665   Thumb Code    58  bsp_int.o(.text)
    .text                                    0x080019dc   Section        0  w25qxx.o(.text)
    .text                                    0x08001d04   Section        0  usart.o(.text)
    .text                                    0x080020d0   Section        0  timer.o(.text)
    .text                                    0x080021c4   Section        0  spi.o(.text)
    .text                                    0x08002248   Section        0  rtc.o(.text)
    .text                                    0x08002524   Section        0  lan8720.o(.text)
    .text                                    0x08002870   Section        0  stm32f2x7_eth.o(.text)
    ETH_Delay                                0x08002871   Thumb Code    28  stm32f2x7_eth.o(.text)
    .text                                    0x080036a4   Section        0  misc.o(.text)
    .text                                    0x08003784   Section        0  stm32f2xx_exti.o(.text)
    .text                                    0x080038a0   Section        0  stm32f2xx_gpio.o(.text)
    .text                                    0x08003afc   Section        0  stm32f2xx_iwdg.o(.text)
    .text                                    0x08003b3c   Section        0  stm32f2xx_pwr.o(.text)
    .text                                    0x08003c14   Section        0  stm32f2xx_rcc.o(.text)
    .text                                    0x0800419c   Section        0  stm32f2xx_rtc.o(.text)
    RTC_ByteToBcd2                           0x080043e3   Thumb Code    28  stm32f2xx_rtc.o(.text)
    RTC_Bcd2ToByte                           0x080043ff   Thumb Code    22  stm32f2xx_rtc.o(.text)
    .text                                    0x08004ca4   Section        0  stm32f2xx_spi.o(.text)
    .text                                    0x0800504c   Section        0  stm32f2xx_syscfg.o(.text)
    .text                                    0x080050d8   Section        0  stm32f2xx_tim.o(.text)
    TI4_Config                               0x08005877   Thumb Code    80  stm32f2xx_tim.o(.text)
    TI3_Config                               0x080058d9   Thumb Code    72  stm32f2xx_tim.o(.text)
    TI2_Config                               0x0800593b   Thumb Code    90  stm32f2xx_tim.o(.text)
    TI1_Config                               0x080059a7   Thumb Code    58  stm32f2xx_tim.o(.text)
    .text                                    0x08005d7c   Section        0  stm32f2xx_usart.o(.text)
    .text                                    0x08006196   Section        0  lib_ascii.o(.text)
    .text                                    0x080063ec   Section        0  lib_mem.o(.text)
    Mem_SegAlloc                             0x08006623   Thumb Code    80  lib_mem.o(.text)
    Mem_SegCalcTotSize                       0x08006673   Thumb Code   164  lib_mem.o(.text)
    Mem_PoolBlkIsValidAddr                   0x08006fb9   Thumb Code   102  lib_mem.o(.text)
    .text                                    0x080072b0   Section        0  lib_str.o(.text)
    Str_FmtNbr_Int32                         0x08007769   Thumb Code   474  lib_str.o(.text)
    Str_ParseNbr_Int32                       0x080079af   Thumb Code   446  lib_str.o(.text)
    .text                                    0x08007bd8   Section      544  lib_mem_a.o(.text)
    .text                                    0x08007df8   Section        0  cpu_core.o(.text)
    CPU_NameInit                             0x08007e23   Thumb Code     8  cpu_core.o(.text)
    CPU_TS_Init                              0x08007e2b   Thumb Code    14  cpu_core.o(.text)
    .text                                    0x080080a0   Section        0  cpu_c.o(.text)
    .text                                    0x0800881c   Section       52  cpu_a.o(.text)
    .text                                    0x08008850   Section        0  os_cpu_c.o(.text)
    .text                                    0x08008abc   Section        0  os_cfg_app.o(.text)
    .text                                    0x08008ac0   Section        0  os_core.o(.text)
    .text                                    0x0800985c   Section        0  os_dbg.o(.text)
    .text                                    0x08009a08   Section        0  os_flag.o(.text)
    .text                                    0x0800a500   Section        0  os_mem.o(.text)
    .text                                    0x0800a6fc   Section        0  os_msg.o(.text)
    .text                                    0x0800a924   Section        0  os_mutex.o(.text)
    .text                                    0x0800b0b0   Section        0  os_prio.o(.text)
    .text                                    0x0800b12c   Section        0  os_q.o(.text)
    .text                                    0x0800b804   Section        0  os_sem.o(.text)
    .text                                    0x0800beec   Section        0  os_stat.o(.text)
    .text                                    0x0800c494   Section        0  os_task.o(.text)
    .text                                    0x0800d7f4   Section        0  os_tick.o(.text)
    .text                                    0x0800dc78   Section        0  os_time.o(.text)
    .text                                    0x0800e0d4   Section        0  os_tmr.o(.text)
    .text                                    0x0800e8cc   Section       24  cstartup.o(.text)
    .text                                    0x0800e8e4   Section        0  sys_arch.o(.text)
    .text                                    0x0800ed9c   Section        0  rawudp.o(.text)
    rawudp_task_fun                          0x0800ee89   Thumb Code   266  rawudp.o(.text)
    .text                                    0x0800f08c   Section        0  dhcp.o(.text)
    dhcp_task_fun                            0x0800f09f   Thumb Code   282  dhcp.o(.text)
    .text                                    0x0800f380   Section        0  lwip_comm_1.o(.text)
    .text                                    0x0800f48c   Section        0  tcpip.o(.text)
    tcpip_thread                             0x0800f48d   Thumb Code   146  tcpip.o(.text)
    pbuf_free_int                            0x0800f6d1   Thumb Code    14  tcpip.o(.text)
    .text                                    0x0800f7ec   Section        0  ethernet.o(.text)
    .text                                    0x0800f9a0   Section        0  ethernetif.o(.text)
    low_level_init                           0x0800f9a1   Thumb Code   108  ethernetif.o(.text)
    low_level_output                         0x0800fa0d   Thumb Code    60  ethernetif.o(.text)
    low_level_input                          0x0800fa49   Thumb Code    98  ethernetif.o(.text)
    .text                                    0x0800fb94   Section        0  def.o(.text)
    .text                                    0x0800fcec   Section        0  inet_chksum.o(.text)
    inet_cksum_pseudo_base                   0x0800fd4b   Thumb Code   126  inet_chksum.o(.text)
    inet_cksum_pseudo_partial_base           0x0800fe39   Thumb Code   172  inet_chksum.o(.text)
    .text                                    0x08010014   Section        0  init.o(.text)
    .text                                    0x0801009c   Section        0  mem.o(.text)
    plug_holes                               0x0801009d   Thumb Code   226  mem.o(.text)
    .text                                    0x080107c4   Section        0  memp.o(.text)
    do_memp_malloc_pool                      0x0801080b   Thumb Code    72  memp.o(.text)
    do_memp_free_pool                        0x080108af   Thumb Code    64  memp.o(.text)
    .text                                    0x08010a2c   Section        0  netif.o(.text)
    netif_issue_reports                      0x08010a53   Thumb Code    36  netif.o(.text)
    .text                                    0x08010d60   Section        0  pbuf.o(.text)
    pbuf_header_impl                         0x0801149b   Thumb Code   226  pbuf.o(.text)
    pbuf_skip_const                          0x08011ac7   Thumb Code    34  pbuf.o(.text)
    .text                                    0x08011f7c   Section        0  tcp.o(.text)
    tcp_close_shutdown_fin                   0x08012579   Thumb Code   132  tcp.o(.text)
    tcp_remove_listener                      0x080126a9   Thumb Code    24  tcp.o(.text)
    tcp_listen_closed                        0x080126c1   Thumb Code    86  tcp.o(.text)
    tcp_close_shutdown                       0x08012717   Thumb Code   364  tcp.o(.text)
    tcp_new_port                             0x08012d49   Thumb Code    96  tcp.o(.text)
    tcp_accept_null                          0x08012f25   Thumb Code    20  tcp.o(.text)
    tcp_kill_prio                            0x080131e7   Thumb Code    78  tcp.o(.text)
    tcp_kill_state                           0x08013235   Thumb Code   276  tcp.o(.text)
    tcp_kill_timewait                        0x08013349   Thumb Code    50  tcp.o(.text)
    tcp_netif_ip_addr_changed_pcblist        0x08013507   Thumb Code    42  tcp.o(.text)
    .text                                    0x0801363c   Section        0  tcp_in.o(.text)
    tcp_input_delayed_close                  0x0801363d   Thumb Code    68  tcp_in.o(.text)
    tcp_receive                              0x08013681   Thumb Code  2036  tcp_in.o(.text)
    tcp_getoptbyte                           0x08013e75   Thumb Code    70  tcp_in.o(.text)
    tcp_parseopt                             0x08013ebb   Thumb Code   356  tcp_in.o(.text)
    tcp_process                              0x0801401f   Thumb Code  1660  tcp_in.o(.text)
    tcp_listen_input                         0x0801469b   Thumb Code   296  tcp_in.o(.text)
    tcp_timewait_input                       0x080147c3   Thumb Code   134  tcp_in.o(.text)
    .text                                    0x08014ff4   Section        0  tcp_out.o(.text)
    tcp_output_alloc_header                  0x08014ff5   Thumb Code   152  tcp_out.o(.text)
    tcp_create_segment                       0x0801508d   Thumb Code   218  tcp_out.o(.text)
    tcp_pbuf_prealloc                        0x0801533b   Thumb Code   474  tcp_out.o(.text)
    tcp_write_checks                         0x08015515   Thumb Code   178  tcp_out.o(.text)
    tcp_output_segment                       0x08015dc1   Thumb Code   214  tcp_out.o(.text)
    .text                                    0x08016538   Section        0  timeouts.o(.text)
    tcpip_tcp_timer                          0x0801661b   Thumb Code    40  timeouts.o(.text)
    cyclic_timer                             0x08016669   Thumb Code    22  timeouts.o(.text)
    sys_check_timeouts                       0x080166ff   Thumb Code   114  timeouts.o(.text)
    sys_timeouts_sleeptime                   0x0801677d   Thumb Code    48  timeouts.o(.text)
    .text                                    0x08016890   Section        0  udp.o(.text)
    udp_new_port                             0x08016893   Thumb Code    80  udp.o(.text)
    udp_input_local_match                    0x080168e3   Thumb Code    66  udp.o(.text)
    .text                                    0x08016e70   Section        0  dhcp_2.o(.text)
    dhcp_delete_msg                          0x08016e71   Thumb Code   102  dhcp_2.o(.text)
    dhcp_option_trailer                      0x08016ed7   Thumb Code   140  dhcp_2.o(.text)
    dhcp_option_byte                         0x08016f63   Thumb Code    48  dhcp_2.o(.text)
    dhcp_option                              0x08016f93   Thumb Code    66  dhcp_2.o(.text)
    dhcp_option_long                         0x08016fd5   Thumb Code    96  dhcp_2.o(.text)
    dhcp_option_short                        0x08017035   Thumb Code    64  dhcp_2.o(.text)
    dhcp_create_msg                          0x08017075   Thumb Code  1120  dhcp_2.o(.text)
    dhcp_set_state                           0x080174d5   Thumb Code    16  dhcp_2.o(.text)
    dhcp_select                              0x080174e5   Thumb Code   242  dhcp_2.o(.text)
    dhcp_handle_offer                        0x080175d7   Thumb Code    36  dhcp_2.o(.text)
    dhcp_discover                            0x080175fb   Thumb Code   196  dhcp_2.o(.text)
    dhcp_handle_nak                          0x080176bf   Thumb Code    34  dhcp_2.o(.text)
    dhcp_bind                                0x080176e1   Thumb Code   302  dhcp_2.o(.text)
    dhcp_handle_ack                          0x0801780f   Thumb Code   118  dhcp_2.o(.text)
    dhcp_check                               0x08017885   Thumb Code    62  dhcp_2.o(.text)
    dhcp_parse_reply                         0x080178c3   Thumb Code  1134  dhcp_2.o(.text)
    dhcp_recv                                0x08017d31   Thumb Code   508  dhcp_2.o(.text)
    dhcp_inc_pcb_refcount                    0x08017f2d   Thumb Code   126  dhcp_2.o(.text)
    dhcp_dec_pcb_refcount                    0x08017fab   Thumb Code    66  dhcp_2.o(.text)
    dhcp_t1_timeout                          0x0801809f   Thumb Code    66  dhcp_2.o(.text)
    dhcp_rebind                              0x080180e1   Thumb Code   176  dhcp_2.o(.text)
    dhcp_t2_timeout                          0x08018191   Thumb Code    72  dhcp_2.o(.text)
    dhcp_reboot                              0x08018307   Thumb Code   312  dhcp_2.o(.text)
    dhcp_timeout                             0x0801843f   Thumb Code   116  dhcp_2.o(.text)
    dhcp_decline                             0x08018795   Thumb Code   318  dhcp_2.o(.text)
    .text                                    0x08018924   Section        0  etharp.o(.text)
    etharp_free_entry                        0x08018925   Thumb Code    58  etharp.o(.text)
    etharp_raw                               0x0801895f   Thumb Code   222  etharp.o(.text)
    etharp_request_dst                       0x08018a3d   Thumb Code    38  etharp.o(.text)
    etharp_find_entry                        0x08018b4d   Thumb Code   756  etharp.o(.text)
    etharp_update_arp_entry                  0x08018e41   Thumb Code   216  etharp.o(.text)
    etharp_output_to_arp_index               0x08019135   Thumb Code   420  etharp.o(.text)
    .text                                    0x08019684   Section        0  icmp.o(.text)
    icmp_send_response                       0x0801985b   Thumb Code   150  icmp.o(.text)
    .text                                    0x080199f8   Section        0  ip4.o(.text)
    .text                                    0x08019ef0   Section        0  ip4_addr.o(.text)
    .text                                    0x0801a240   Section        0  ip4_frag.o(.text)
    ip_reass_dequeue_datagram                0x0801a241   Thumb Code    60  ip4_frag.o(.text)
    ip_reass_free_complete_datagram          0x0801a27d   Thumb Code   274  ip4_frag.o(.text)
    ip_reass_remove_oldest_datagram          0x0801a3bf   Thumb Code   130  ip4_frag.o(.text)
    ip_reass_enqueue_new_datagram            0x0801a441   Thumb Code    80  ip4_frag.o(.text)
    ip_reass_chain_frag_into_datagram_and_validate 0x0801a491   Thumb Code   824  ip4_frag.o(.text)
    ip_frag_alloc_pbuf_custom_ref            0x0801a9a3   Thumb Code    10  ip4_frag.o(.text)
    ip_frag_free_pbuf_custom_ref             0x0801a9ad   Thumb Code    42  ip4_frag.o(.text)
    ipfrag_free_pbuf_custom                  0x0801a9d7   Thumb Code    82  ip4_frag.o(.text)
    .text                                    0x0801acf8   Section        0  memcpya.o(.text)
    .text                                    0x0801ad1c   Section        0  memseta.o(.text)
    .text                                    0x0801ad40   Section        0  strlen.o(.text)
    .text                                    0x0801ad4e   Section        0  strcmp.o(.text)
    .text                                    0x0801ad6a   Section        0  memcmp.o(.text)
    .text                                    0x0801ad84   Section        0  strncmp.o(.text)
    .text                                    0x0801ada2   Section        0  uidiv.o(.text)
    .text                                    0x0801add0   Section       36  init.o(.text)
    .text                                    0x0801adf4   Section        0  __dczerorl2.o(.text)
    .text                                    0x0801adf4   Section        0  iusesemip.o(.text)
    .text                                    0x0801adf4   Section        0  semi.o(.text)
    CODE                                     0x0801ae4c   Section      132  os_cpu_a.o(CODE)
    i.__0printf$3                            0x0801aed0   Section        0  printf3.o(i.__0printf$3)
    i.__0sprintf$3                           0x0801aef0   Section        0  printf3.o(i.__0sprintf$3)
    i.__scatterload_copy                     0x0801af18   Section       14  handlers.o(i.__scatterload_copy)
    i.__scatterload_null                     0x0801af26   Section        2  handlers.o(i.__scatterload_null)
    i.__scatterload_zeroinit                 0x0801af28   Section       14  handlers.o(i.__scatterload_zeroinit)
    i._printf_core                           0x0801af38   Section        0  printf3.o(i._printf_core)
    _printf_core                             0x0801af39   Thumb Code   436  printf3.o(i._printf_core)
    i._sputc                                 0x0801b0f0   Section        0  printf3.o(i._sputc)
    _sputc                                   0x0801b0f1   Thumb Code    10  printf3.o(i._sputc)
    i.fputc                                  0x0801b0fa   Section        0  fputc.o(i.fputc)
    .constdata                               0x0801b10c   Section      512  protocol.o(.constdata)
    .constdata                               0x0801b30c   Section      148  lib_str.o(.constdata)
    Str_MultOvfThTbl_Int32U                  0x0801b30c   Data         148  lib_str.o(.constdata)
    .constdata                               0x0801b3a0   Section      256  cpu_core.o(.constdata)
    CPU_CntLeadZerosTbl                      0x0801b3a0   Data         256  cpu_core.o(.constdata)
    .constdata                               0x0801b4a0   Section      164  os_cfg_app.o(.constdata)
    .constdata                               0x0801b544   Section      364  os_dbg.o(.constdata)
    .constdata                               0x0801b6b0   Section        4  sys_arch.o(.constdata)
    .constdata                               0x0801b6b4   Section       12  ethernet.o(.constdata)
    .constdata                               0x0801b6c0   Section      192  memp.o(.constdata)
    .constdata                               0x0801b780   Section       80  tcp.o(.constdata)
    tcp_state_str                            0x0801b780   Data          44  tcp.o(.constdata)
    tcp_backoff                              0x0801b7ac   Data          13  tcp.o(.constdata)
    tcp_persist_backoff                      0x0801b7b9   Data           7  tcp.o(.constdata)
    .constdata                               0x0801b7d0   Section       40  timeouts.o(.constdata)
    .constdata                               0x0801b7f8   Section        8  ip4_addr.o(.constdata)
    .conststring                             0x0801b800   Section       72  def.o(.conststring)
    .conststring                             0x0801b848   Section       65  init.o(.conststring)
    .conststring                             0x0801b88c   Section      117  tcp.o(.conststring)
    .conststring                             0x0801b904   Section       85  tcp_out.o(.conststring)
    .conststring                             0x0801b95c   Section      140  dhcp_2.o(.conststring)
    .conststring                             0x0801b9e8   Section       65  etharp.o(.conststring)
    .data                                    0x20000000   Section       20  system_stm32f2xx.o(.data)
    .data                                    0x20000014   Section        4  protocol.o(.data)
    .data                                    0x20000018   Section       14  usart.o(.data)
    .data                                    0x20000028   Section        8  timer.o(.data)
    .data                                    0x20000030   Section        4  lan8720.o(.data)
    .data                                    0x20000034   Section       16  stm32f2x7_eth.o(.data)
    .data                                    0x20000044   Section       16  stm32f2xx_rcc.o(.data)
    APBAHBPrescTable                         0x20000044   Data          16  stm32f2xx_rcc.o(.data)
    .data                                    0x20000054   Section        4  lib_mem.o(.data)
    .data                                    0x20000058   Section        4  cpu_core.o(.data)
    .data                                    0x2000005c   Section        4  os_cpu_c.o(.data)
    .data                                    0x20000060   Section        8  os_prio.o(.data)
    .data                                    0x20000068   Section      180  os_var.o(.data)
    .data                                    0x2000011c   Section        4  rawudp.o(.data)
    .data                                    0x20000120   Section        8  tcpip.o(.data)
    tcpip_init_done                          0x20000120   Data           4  tcpip.o(.data)
    tcpip_init_done_arg                      0x20000124   Data           4  tcpip.o(.data)
    .data                                    0x20000128   Section       12  mem.o(.data)
    ram                                      0x20000128   Data           4  mem.o(.data)
    ram_end                                  0x2000012c   Data           4  mem.o(.data)
    lfree                                    0x20000130   Data           4  mem.o(.data)
    .data                                    0x20000134   Section       48  memp.o(.data)
    memp_tab_UDP_PCB                         0x20000134   Data           4  memp.o(.data)
    memp_tab_TCP_PCB                         0x20000138   Data           4  memp.o(.data)
    memp_tab_TCP_PCB_LISTEN                  0x2000013c   Data           4  memp.o(.data)
    memp_tab_TCP_SEG                         0x20000140   Data           4  memp.o(.data)
    memp_tab_REASSDATA                       0x20000144   Data           4  memp.o(.data)
    memp_tab_FRAG_PBUF                       0x20000148   Data           4  memp.o(.data)
    memp_tab_NETBUF                          0x2000014c   Data           4  memp.o(.data)
    memp_tab_NETCONN                         0x20000150   Data           4  memp.o(.data)
    memp_tab_TCPIP_MSG_API                   0x20000154   Data           4  memp.o(.data)
    memp_tab_SYS_TIMEOUT                     0x20000158   Data           4  memp.o(.data)
    memp_tab_PBUF                            0x2000015c   Data           4  memp.o(.data)
    memp_tab_PBUF_POOL                       0x20000160   Data           4  memp.o(.data)
    .data                                    0x20000164   Section        9  netif.o(.data)
    netif_num                                0x2000016c   Data           1  netif.o(.data)
    .data                                    0x20000170   Section       32  tcp.o(.data)
    tcp_port                                 0x20000170   Data           2  tcp.o(.data)
    tcp_timer                                0x20000189   Data           1  tcp.o(.data)
    tcp_timer_ctr                            0x2000018a   Data           1  tcp.o(.data)
    iss                                      0x2000018c   Data           4  tcp.o(.data)
    .data                                    0x20000190   Section       40  tcp_in.o(.data)
    tcphdr                                   0x20000190   Data           4  tcp_in.o(.data)
    tcphdr_optlen                            0x20000194   Data           2  tcp_in.o(.data)
    tcphdr_opt1len                           0x20000196   Data           2  tcp_in.o(.data)
    tcphdr_opt2                              0x20000198   Data           4  tcp_in.o(.data)
    tcp_optidx                               0x2000019c   Data           2  tcp_in.o(.data)
    seqno                                    0x200001a0   Data           4  tcp_in.o(.data)
    ackno                                    0x200001a4   Data           4  tcp_in.o(.data)
    recv_acked                               0x200001a8   Data           2  tcp_in.o(.data)
    tcplen                                   0x200001aa   Data           2  tcp_in.o(.data)
    flags                                    0x200001ac   Data           1  tcp_in.o(.data)
    recv_flags                               0x200001ad   Data           1  tcp_in.o(.data)
    recv_data                                0x200001b0   Data           4  tcp_in.o(.data)
    .data                                    0x200001b8   Section       12  timeouts.o(.data)
    next_timeout                             0x200001b8   Data           4  timeouts.o(.data)
    timeouts_last_time                       0x200001bc   Data           4  timeouts.o(.data)
    tcpip_tcp_timer_active                   0x200001c0   Data           4  timeouts.o(.data)
    .data                                    0x200001c4   Section        8  udp.o(.data)
    udp_port                                 0x200001c4   Data           2  udp.o(.data)
    .data                                    0x200001cc   Section       24  dhcp_2.o(.data)
    dhcp_discover_request_options            0x200001d4   Data           3  dhcp_2.o(.data)
    dhcp_pcb                                 0x200001d8   Data           4  dhcp_2.o(.data)
    dhcp_pcb_refcount                        0x200001dc   Data           1  dhcp_2.o(.data)
    xid                                      0x200001e0   Data           4  dhcp_2.o(.data)
    .data                                    0x200001e4   Section        1  etharp.o(.data)
    etharp_cached_entry                      0x200001e4   Data           1  etharp.o(.data)
    .data                                    0x200001e6   Section        2  ip4.o(.data)
    ip_id                                    0x200001e6   Data           2  ip4.o(.data)
    .data                                    0x200001e8   Section        6  ip4_frag.o(.data)
    reassdatagrams                           0x200001e8   Data           4  ip4_frag.o(.data)
    ip_reass_pbufcount                       0x200001ec   Data           2  ip4_frag.o(.data)
    .data                                    0x200001f0   Section        4  stdout.o(.data)
    .bss                                     0x200001f4   Section     9668  app.o(.bss)
    AppTaskStartTCB                          0x200001f4   Data         196  app.o(.bss)
    AppTaskStartStk                          0x200002b8   Data         512  app.o(.bss)
    led0_task_TCB                            0x200004b8   Data         196  app.o(.bss)
    led0_task_stk                            0x2000057c   Data         512  app.o(.bss)
    led1_task_TCB                            0x2000077c   Data         196  app.o(.bss)
    led1_task_stk                            0x20000840   Data         512  app.o(.bss)
    .bss                                     0x200027b8   Section       76  protocol.o(.bss)
    .bss                                     0x20002804   Section      328  bsp_int.o(.bss)
    BSP_IntVectTbl                           0x20002804   Data         328  bsp_int.o(.bss)
    .bss                                     0x2000294c   Section     4096  w25qxx.o(.bss)
    .bss                                     0x2000394c   Section      514  usart.o(.bss)
    sb                                       0x2000394c   Data         514  usart.o(.bss)
    .bss                                     0x20003b50   Section       40  timer.o(.bss)
    .bss                                     0x20003b78   Section    15572  stm32f2x7_eth.o(.bss)
    .bss                                     0x2000784c   Section     9288  lib_mem.o(.bss)
    .bss                                     0x20009c94   Section       16  cpu_core.o(.bss)
    .bss                                     0x20009ca4   Section     4928  os_cfg_app.o(.bss)
    .bss                                     0x2000afe4   Section     1564  os_var.o(.bss)
    .bss                                     0x2000b600   Section     4196  sys_arch.o(.bss)
    .bss                                     0x2000c664   Section     2244  rawudp.o(.bss)
    .bss                                     0x2000cf28   Section     1220  dhcp.o(.bss)
    .bss                                     0x2000d3ec   Section       76  lwip_comm_1.o(.bss)
    .bss                                     0x2000d438   Section       88  tcpip.o(.bss)
    mbox                                     0x2000d438   Data          48  tcpip.o(.bss)
    .bss                                     0x2000d490   Section       24  ip.o(.bss)
    .bss                                     0x2000d4a8   Section     5180  mem.o(.bss)
    mem_mutex                                0x2000e8bc   Data          40  mem.o(.bss)
    .bss                                     0x2000e8e4   Section    18884  memp.o(.bss)
    .bss                                     0x200132a8   Section       16  tcp_in.o(.bss)
    inseg                                    0x200132a8   Data          16  tcp_in.o(.bss)
    .bss                                     0x200132b8   Section       32  dhcp_2.o(.bss)
    .bss                                     0x200132d8   Section      240  etharp.o(.bss)
    arp_table                                0x200132d8   Data         240  etharp.o(.bss)
    .bss                                     0x200133c8   Section       16  ip4_addr.o(.bss)
    str                                      0x200133c8   Data          16  ip4_addr.o(.bss)
    STACK                                    0x200133d8   Section     1024  cstartup.o(STACK)

    Global Symbols

    Symbol Name                              Value     Ov Type        Size  Object(Section)

    BuildAttributes$$THM_ISAv4$P$D$K$B$S$PE$A:L22UL41UL21$X:L11$S22US41US21$IEEE1$IW$USESV6$~STKCKD$USESV7$~SHL$OSPACE$ROPI$EBA8$MICROLIB$REQ8$PRES8$EABIv2 0x00000000   Number         0  anon$$obj.o ABSOLUTE
    __ARM_use_no_argv                        0x00000000   Number         0  app.o ABSOLUTE
    _printf_a                                0x00000000   Number         0  stubs.o ABSOLUTE
    _printf_c                                0x00000000   Number         0  stubs.o ABSOLUTE
    _printf_charcount                        0x00000000   Number         0  stubs.o ABSOLUTE
    _printf_d                                0x00000000   Number         0  stubs.o ABSOLUTE
    _printf_e                                0x00000000   Number         0  stubs.o ABSOLUTE
    _printf_f                                0x00000000   Number         0  stubs.o ABSOLUTE
    _printf_flags                            0x00000000   Number         0  stubs.o ABSOLUTE
    _printf_fp_dec                           0x00000000   Number         0  stubs.o ABSOLUTE
    _printf_fp_hex                           0x00000000   Number         0  stubs.o ABSOLUTE
    _printf_g                                0x00000000   Number         0  stubs.o ABSOLUTE
    _printf_i                                0x00000000   Number         0  stubs.o ABSOLUTE
    _printf_int_dec                          0x00000000   Number         0  stubs.o ABSOLUTE
    _printf_l                                0x00000000   Number         0  stubs.o ABSOLUTE
    _printf_lc                               0x00000000   Number         0  stubs.o ABSOLUTE
    _printf_ll                               0x00000000   Number         0  stubs.o ABSOLUTE
    _printf_lld                              0x00000000   Number         0  stubs.o ABSOLUTE
    _printf_lli                              0x00000000   Number         0  stubs.o ABSOLUTE
    _printf_llo                              0x00000000   Number         0  stubs.o ABSOLUTE
    _printf_llu                              0x00000000   Number         0  stubs.o ABSOLUTE
    _printf_llx                              0x00000000   Number         0  stubs.o ABSOLUTE
    _printf_longlong_dec                     0x00000000   Number         0  stubs.o ABSOLUTE
    _printf_longlong_hex                     0x00000000   Number         0  stubs.o ABSOLUTE
    _printf_longlong_oct                     0x00000000   Number         0  stubs.o ABSOLUTE
    _printf_ls                               0x00000000   Number         0  stubs.o ABSOLUTE
    _printf_mbtowc                           0x00000000   Number         0  stubs.o ABSOLUTE
    _printf_n                                0x00000000   Number         0  stubs.o ABSOLUTE
    _printf_o                                0x00000000   Number         0  stubs.o ABSOLUTE
    _printf_p                                0x00000000   Number         0  stubs.o ABSOLUTE
    _printf_percent                          0x00000000   Number         0  stubs.o ABSOLUTE
    _printf_pre_padding                      0x00000000   Number         0  stubs.o ABSOLUTE
    _printf_return_value                     0x00000000   Number         0  stubs.o ABSOLUTE
    _printf_s                                0x00000000   Number         0  stubs.o ABSOLUTE
    _printf_sizespec                         0x00000000   Number         0  stubs.o ABSOLUTE
    _printf_str                              0x00000000   Number         0  stubs.o ABSOLUTE
    _printf_truncate_signed                  0x00000000   Number         0  stubs.o ABSOLUTE
    _printf_truncate_unsigned                0x00000000   Number         0  stubs.o ABSOLUTE
    _printf_u                                0x00000000   Number         0  stubs.o ABSOLUTE
    _printf_wc                               0x00000000   Number         0  stubs.o ABSOLUTE
    _printf_wctomb                           0x00000000   Number         0  stubs.o ABSOLUTE
    _printf_widthprec                        0x00000000   Number         0  stubs.o ABSOLUTE
    _printf_x                                0x00000000   Number         0  stubs.o ABSOLUTE
    __cpp_initialize__aeabi_                  - Undefined Weak Reference
    __cxa_finalize                            - Undefined Weak Reference
    _clock_init                               - Undefined Weak Reference
    _microlib_exit                            - Undefined Weak Reference
    __Vectors_Size                           0x00000184   Number         0  cstartup.o ABSOLUTE
    __Vectors                                0x08000000   Data           4  cstartup.o(RESET)
    __Vectors_End                            0x08000184   Data           0  cstartup.o(RESET)
    __main                                   0x08000185   Thumb Code     0  entry.o(.ARM.Collect$$$$00000000)
    _main_stk                                0x08000185   Thumb Code     0  entry2.o(.ARM.Collect$$$$00000001)
    _main_scatterload                        0x08000189   Thumb Code     0  entry5.o(.ARM.Collect$$$$00000004)
    __main_after_scatterload                 0x0800018d   Thumb Code     0  entry5.o(.ARM.Collect$$$$00000004)
    _main_clock                              0x0800018d   Thumb Code     0  entry7b.o(.ARM.Collect$$$$00000008)
    _main_cpp_init                           0x0800018d   Thumb Code     0  entry8b.o(.ARM.Collect$$$$0000000A)
    _main_init                               0x0800018d   Thumb Code     0  entry9a.o(.ARM.Collect$$$$0000000B)
    __rt_final_cpp                           0x08000195   Thumb Code     0  entry10a.o(.ARM.Collect$$$$0000000D)
    __rt_final_exit                          0x08000195   Thumb Code     0  entry11a.o(.ARM.Collect$$$$0000000F)
    gprs_callback                            0x08000355   Thumb Code    22  app.o(.text)
    tmr1_callback                            0x0800036b   Thumb Code    12  app.o(.text)
    main                                     0x08000431   Thumb Code   114  app.o(.text)
    SystemInit                               0x0800067d   Thumb Code    74  system_stm32f2xx.o(.text)
    SystemCoreClockUpdate                    0x080006c7   Thumb Code   174  system_stm32f2xx.o(.text)
    svr_to_ctu                               0x0800079d   Thumb Code   110  protocol.o(.text)
    process_protocol                         0x0800080b   Thumb Code    32  protocol.o(.text)
    crc16_modbus                             0x0800082b   Thumb Code    64  protocol.o(.text)
    fatch_gprs_data                          0x0800086b   Thumb Code   520  protocol.o(.text)
    ctu_to_srv                               0x08000a73   Thumb Code   150  protocol.o(.text)
    heart_beat                               0x08000b09   Thumb Code   458  protocol.o(.text)
    sign_in                                  0x08000cd3   Thumb Code   308  protocol.o(.text)
    protocol_task_create                     0x08000e7d   Thumb Code   110  protocol.o(.text)
    crc16_xmodem                             0x08000eeb   Thumb Code    40  protocol.o(.text)
    clear_rx_buff                            0x08000f13   Thumb Code    16  protocol.o(.text)
    bsp_rcc_init                             0x08000f65   Thumb Code    76  bsp.o(.text)
    bsp_MCO1_init                            0x08000fb1   Thumb Code    62  bsp.o(.text)
    eth_gpio_init                            0x08000fef   Thumb Code   196  bsp.o(.text)
    bsp207_gpio_init                         0x080010b3   Thumb Code   330  bsp.o(.text)
    bsp_nvic_init                            0x080011fd   Thumb Code   186  bsp.o(.text)
    BSP_Init                                 0x080012b7   Thumb Code    62  bsp.o(.text)
    BSP_RNG_Read                             0x080012f5   Thumb Code    88  bsp.o(.text)
    BSP_CPU_ClkFreq                          0x0800134d   Thumb Code    14  bsp.o(.text)
    BSP_CPU_TickInit                         0x0800135b   Thumb Code    58  bsp.o(.text)
    CPU_TS_TmrInit                           0x08001395   Thumb Code    44  bsp.o(.text)
    CPU_TS_TmrRd                             0x080013c1   Thumb Code     6  bsp.o(.text)
    bsp205_gpio_init                         0x080013c7   Thumb Code   412  bsp.o(.text)
    bsp_system_reset                         0x08001563   Thumb Code    46  bsp.o(.text)
    bsp_iwatchdog_config                     0x08001591   Thumb Code     2  bsp.o(.text)
    bsp_iwatchdog_clear                      0x08001593   Thumb Code     8  bsp.o(.text)
    BSP_IntClr                               0x080015b5   Thumb Code     2  bsp_int.o(.text)
    BSP_IntDis                               0x080015b7   Thumb Code    20  bsp_int.o(.text)
    BSP_IntDisAll                            0x080015cb   Thumb Code     8  bsp_int.o(.text)
    BSP_IntEn                                0x080015d3   Thumb Code    20  bsp_int.o(.text)
    BSP_IntVectSet                           0x080015e7   Thumb Code    48  bsp_int.o(.text)
    BSP_IntPrioSet                           0x08001617   Thumb Code    54  bsp_int.o(.text)
    BSP_IntInit                              0x0800164f   Thumb Code    22  bsp_int.o(.text)
    BSP_IntHandlerWWDG                       0x0800169f   Thumb Code    10  bsp_int.o(.text)
    BSP_IntHandlerPVD                        0x080016a9   Thumb Code    10  bsp_int.o(.text)
    BSP_IntHandlerTAMPER                     0x080016b3   Thumb Code    10  bsp_int.o(.text)
    BSP_IntHandlerRTC                        0x080016bd   Thumb Code    10  bsp_int.o(.text)
    BSP_IntHandlerFLASH                      0x080016c7   Thumb Code    10  bsp_int.o(.text)
    BSP_IntHandlerRCC                        0x080016d1   Thumb Code    10  bsp_int.o(.text)
    BSP_IntHandlerEXTI0                      0x080016db   Thumb Code    10  bsp_int.o(.text)
    BSP_IntHandlerEXTI1                      0x080016e5   Thumb Code    10  bsp_int.o(.text)
    BSP_IntHandlerEXTI2                      0x080016ef   Thumb Code    10  bsp_int.o(.text)
    BSP_IntHandlerEXTI3                      0x080016f9   Thumb Code    10  bsp_int.o(.text)
    BSP_IntHandlerEXTI4                      0x08001703   Thumb Code    10  bsp_int.o(.text)
    BSP_IntHandlerDMA1_CH1                   0x0800170d   Thumb Code    10  bsp_int.o(.text)
    BSP_IntHandlerDMA1_CH2                   0x08001717   Thumb Code    10  bsp_int.o(.text)
    BSP_IntHandlerDMA1_CH3                   0x08001721   Thumb Code    10  bsp_int.o(.text)
    BSP_IntHandlerDMA1_CH4                   0x0800172b   Thumb Code    10  bsp_int.o(.text)
    BSP_IntHandlerDMA1_CH5                   0x08001735   Thumb Code    10  bsp_int.o(.text)
    BSP_IntHandlerDMA1_CH6                   0x0800173f   Thumb Code    10  bsp_int.o(.text)
    BSP_IntHandlerDMA1_CH7                   0x08001749   Thumb Code    10  bsp_int.o(.text)
    BSP_IntHandlerADC1_2                     0x08001753   Thumb Code    10  bsp_int.o(.text)
    BSP_IntHandlerCAN1_TX                    0x0800175d   Thumb Code    10  bsp_int.o(.text)
    BSP_IntHandlerCAN1_RX0                   0x08001767   Thumb Code    10  bsp_int.o(.text)
    BSP_IntHandlerCAN1_RX1                   0x08001771   Thumb Code    10  bsp_int.o(.text)
    BSP_IntHandlerCAN1_SCE                   0x0800177b   Thumb Code    10  bsp_int.o(.text)
    BSP_IntHandlerEXTI9_5                    0x08001785   Thumb Code    10  bsp_int.o(.text)
    BSP_IntHandlerTIM1_BRK                   0x0800178f   Thumb Code    10  bsp_int.o(.text)
    BSP_IntHandlerTIM1_UP                    0x08001799   Thumb Code    10  bsp_int.o(.text)
    BSP_IntHandlerTIM1_TRG_COM               0x080017a3   Thumb Code    10  bsp_int.o(.text)
    BSP_IntHandlerTIM1_CC                    0x080017ad   Thumb Code    10  bsp_int.o(.text)
    BSP_IntHandlerTIM2                       0x080017b7   Thumb Code    10  bsp_int.o(.text)
    BSP_IntHandlerTIM3                       0x080017c1   Thumb Code    10  bsp_int.o(.text)
    BSP_IntHandlerTIM4                       0x080017cb   Thumb Code    10  bsp_int.o(.text)
    BSP_IntHandlerI2C1_EV                    0x080017d5   Thumb Code    10  bsp_int.o(.text)
    BSP_IntHandlerI2C1_ER                    0x080017df   Thumb Code    10  bsp_int.o(.text)
    BSP_IntHandlerI2C2_EV                    0x080017e9   Thumb Code    10  bsp_int.o(.text)
    BSP_IntHandlerI2C2_ER                    0x080017f3   Thumb Code    10  bsp_int.o(.text)
    BSP_IntHandlerSPI1                       0x080017fd   Thumb Code    10  bsp_int.o(.text)
    BSP_IntHandlerSPI2                       0x08001807   Thumb Code    10  bsp_int.o(.text)
    BSP_IntHandlerUSART1                     0x08001811   Thumb Code    10  bsp_int.o(.text)
    BSP_IntHandlerUSART2                     0x0800181b   Thumb Code    10  bsp_int.o(.text)
    BSP_IntHandlerUSART3                     0x08001825   Thumb Code    10  bsp_int.o(.text)
    BSP_IntHandlerEXTI15_10                  0x0800182f   Thumb Code    10  bsp_int.o(.text)
    BSP_IntHandlerRTCAlarm                   0x08001839   Thumb Code    10  bsp_int.o(.text)
    BSP_IntHandlerUSBWakeUp                  0x08001843   Thumb Code    10  bsp_int.o(.text)
    BSP_IntHandlerTIM8_BRK_TIM12             0x0800184d   Thumb Code    10  bsp_int.o(.text)
    BSP_IntHandlerTIM8_UP_TIM13              0x08001857   Thumb Code    10  bsp_int.o(.text)
    BSP_IntHandlerTIM8_TRG_COM_TIM14         0x08001861   Thumb Code    10  bsp_int.o(.text)
    BSP_IntHandlerTIM8_CC                    0x0800186b   Thumb Code    10  bsp_int.o(.text)
    BSP_IntHandlerDMA1_STREAM7               0x08001875   Thumb Code    10  bsp_int.o(.text)
    BSP_IntHandlerFSMC                       0x0800187f   Thumb Code    10  bsp_int.o(.text)
    BSP_IntHandlerSDIO                       0x08001889   Thumb Code    10  bsp_int.o(.text)
    BSP_IntHandlerTIM5                       0x08001893   Thumb Code    10  bsp_int.o(.text)
    BSP_IntHandlerSPI3                       0x0800189d   Thumb Code    10  bsp_int.o(.text)
    BSP_IntHandlerUSART4                     0x080018a7   Thumb Code    10  bsp_int.o(.text)
    BSP_IntHandlerUSART5                     0x080018b1   Thumb Code    10  bsp_int.o(.text)
    BSP_IntHandlerTIM6                       0x080018bb   Thumb Code    10  bsp_int.o(.text)
    BSP_IntHandlerTIM7                       0x080018c5   Thumb Code    10  bsp_int.o(.text)
    BSP_IntHandlerDMA2_CH1                   0x080018cf   Thumb Code    10  bsp_int.o(.text)
    BSP_IntHandlerDMA2_CH2                   0x080018d9   Thumb Code    10  bsp_int.o(.text)
    BSP_IntHandlerDMA2_CH3                   0x080018e3   Thumb Code    10  bsp_int.o(.text)
    BSP_IntHandlerDMA2_CH4                   0x080018ed   Thumb Code    10  bsp_int.o(.text)
    BSP_IntHandlerDMA2_CH5                   0x080018f7   Thumb Code    10  bsp_int.o(.text)
    BSP_IntHandlerETH                        0x08001901   Thumb Code    10  bsp_int.o(.text)
    BSP_IntHandlerETHWakeup                  0x0800190b   Thumb Code    10  bsp_int.o(.text)
    BSP_IntHandlerCAN2_TX                    0x08001915   Thumb Code    10  bsp_int.o(.text)
    BSP_IntHandlerCAN2_RX0                   0x0800191f   Thumb Code    10  bsp_int.o(.text)
    BSP_IntHandlerCAN2_RX1                   0x08001929   Thumb Code    10  bsp_int.o(.text)
    BSP_IntHandlerCAN2_SCE                   0x08001933   Thumb Code    10  bsp_int.o(.text)
    BSP_IntHandlerOTG                        0x0800193d   Thumb Code    10  bsp_int.o(.text)
    BSP_IntHandlerDMA2_CH6                   0x08001947   Thumb Code    10  bsp_int.o(.text)
    BSP_IntHandlerDMA2_CH7                   0x08001951   Thumb Code    10  bsp_int.o(.text)
    BSP_IntHandlerDMA2_CH8                   0x0800195b   Thumb Code    10  bsp_int.o(.text)
    BSP_IntHandlerUSART6                     0x08001965   Thumb Code    10  bsp_int.o(.text)
    BSP_IntHandlerI2C3_EV                    0x0800196f   Thumb Code    10  bsp_int.o(.text)
    BSP_IntHandlerI2C3_ER                    0x08001979   Thumb Code    10  bsp_int.o(.text)
    BSP_IntHandlerOTG_HS_EP1_OUT             0x08001983   Thumb Code    10  bsp_int.o(.text)
    BSP_IntHandlerOTG_HS_EP1_IN              0x0800198d   Thumb Code    10  bsp_int.o(.text)
    BSP_IntHandlerOTG_HS_WKUP                0x08001997   Thumb Code    10  bsp_int.o(.text)
    BSP_IntHandlerOTG_HS                     0x080019a1   Thumb Code    10  bsp_int.o(.text)
    BSP_IntHandlerDCMI                       0x080019ab   Thumb Code    10  bsp_int.o(.text)
    BSP_IntHandlerCRYP                       0x080019b5   Thumb Code    10  bsp_int.o(.text)
    BSP_IntHandlerHASH_RNG                   0x080019bf   Thumb Code    10  bsp_int.o(.text)
    BSP_IntHandlerRTCWakeup                  0x080019c9   Thumb Code    10  bsp_int.o(.text)
    w25qxx_read_id                           0x080019dd   Thumb Code    70  w25qxx.o(.text)
    w25qxx_init                              0x08001a23   Thumb Code    42  w25qxx.o(.text)
    w25qxx_read_SR                           0x08001a4d   Thumb Code    42  w25qxx.o(.text)
    w25qxx_write_enable                      0x08001a77   Thumb Code    30  w25qxx.o(.text)
    w25qxx_write_disable                     0x08001a95   Thumb Code    30  w25qxx.o(.text)
    w25qxx_wait_busy                         0x08001ab3   Thumb Code    18  w25qxx.o(.text)
    w25qxx_read                              0x08001ac5   Thumb Code    84  w25qxx.o(.text)
    w25qxx_write_page                        0x08001b19   Thumb Code    90  w25qxx.o(.text)
    w25qxx_write_no_check                    0x08001b73   Thumb Code    72  w25qxx.o(.text)
    w25qxx_erase_sector                      0x08001bbb   Thumb Code    68  w25qxx.o(.text)
    w25qxx_write                             0x08001bff   Thumb Code   190  w25qxx.o(.text)
    w25qxx_erase_chip                        0x08001cbd   Thumb Code    42  w25qxx.o(.text)
    USART2_IRQHandler                        0x08001d05   Thumb Code   136  usart.o(.text)
    usart2_init                              0x08001d8d   Thumb Code    70  usart.o(.text)
    USART3_IRQHandler                        0x08001dd3   Thumb Code   160  usart.o(.text)
    usart3_init                              0x08001e73   Thumb Code    70  usart.o(.text)
    UART5_IRQHandler                         0x08001eb9   Thumb Code   160  usart.o(.text)
    usart5_init                              0x08001f59   Thumb Code    70  usart.o(.text)
    USART_OUT                                0x08001f9f   Thumb Code   270  usart.o(.text)
    TIM3_IRQHandler                          0x080020d1   Thumb Code    88  timer.o(.text)
    timer3_init                              0x08002129   Thumb Code    82  timer.o(.text)
    timer_delay_1ms                          0x0800217b   Thumb Code    16  timer.o(.text)
    get_heart_tick                           0x0800218b   Thumb Code     6  timer.o(.text)
    timer_is_timeout_1MS                     0x08002191   Thumb Code    30  timer.o(.text)
    bsp_spi1_init                            0x080021c5   Thumb Code    78  spi.o(.text)
    spi1_exchange_byte                       0x08002213   Thumb Code    50  spi.o(.text)
    RTC_WKUP_IRQHandler                      0x08002249   Thumb Code    30  rtc.o(.text)
    RTC_Alarm_IRQHandler                     0x08002267   Thumb Code    30  rtc.o(.text)
    rtc_set_date                             0x08002285   Thumb Code    36  rtc.o(.text)
    rtc_set_time                             0x080022a9   Thumb Code    36  rtc.o(.text)
    rtc_bcd2_to_byte                         0x080022cd   Thumb Code    22  rtc.o(.text)
    rtc_set_calendar                         0x080022e3   Thumb Code   156  rtc.o(.text)
    rtc_init                                 0x0800237f   Thumb Code   164  rtc.o(.text)
    rtc_get_calendar                         0x08002423   Thumb Code   112  rtc.o(.text)
    RCC_IRQHandler                           0x08002493   Thumb Code    30  rtc.o(.text)
    rtc_byte_to_bcd2                         0x080024b1   Thumb Code    28  rtc.o(.text)
    ETH_MACDMA_Config                        0x08002525   Thumb Code   132  lan8720.o(.text)
    ETH_IRQHandler                           0x080025a9   Thumb Code    36  lan8720.o(.text)
    LAN8720_Init                             0x080025cd   Thumb Code    62  lan8720.o(.text)
    LAN8720_Get_Speed                        0x0800260b   Thumb Code    30  lan8720.o(.text)
    ETH_Rx_Packet                            0x08002629   Thumb Code   148  lan8720.o(.text)
    ETH_Tx_Packet                            0x080026bd   Thumb Code    94  lan8720.o(.text)
    ETH_GetCurrentTxBuffer                   0x0800271b   Thumb Code     8  lan8720.o(.text)
    lan8720_rx_packet                        0x08002723   Thumb Code    32  lan8720.o(.text)
    lan8720_rxDMA_config                     0x08002743   Thumb Code   148  lan8720.o(.text)
    lan8720_txDMA_config                     0x080027d7   Thumb Code    94  lan8720.o(.text)
    lan8720_write_buff                       0x08002835   Thumb Code    22  lan8720.o(.text)
    ETH_DeInit                               0x0800288d   Thumb Code    22  stm32f2x7_eth.o(.text)
    ETH_StructInit                           0x080028a3   Thumb Code   178  stm32f2x7_eth.o(.text)
    ETH_WritePHYRegister                     0x08002955   Thumb Code    96  stm32f2x7_eth.o(.text)
    ETH_ReadPHYRegister                      0x080029b5   Thumb Code    98  stm32f2x7_eth.o(.text)
    ETH_Init                                 0x08002a17   Thumb Code   602  stm32f2x7_eth.o(.text)
    ETH_DMAReceptionCmd                      0x08002c71   Thumb Code    30  stm32f2x7_eth.o(.text)
    ETH_DMATransmissionCmd                   0x08002c8f   Thumb Code    30  stm32f2x7_eth.o(.text)
    ETH_MACReceptionCmd                      0x08002cad   Thumb Code    30  stm32f2x7_eth.o(.text)
    ETH_FlushTransmitFIFO                    0x08002ccb   Thumb Code    14  stm32f2x7_eth.o(.text)
    ETH_MACTransmissionCmd                   0x08002cd9   Thumb Code    30  stm32f2x7_eth.o(.text)
    ETH_Start                                0x08002cf7   Thumb Code    32  stm32f2x7_eth.o(.text)
    ETH_GetFlowControlBusyStatus             0x08002d17   Thumb Code    20  stm32f2x7_eth.o(.text)
    ETH_InitiatePauseControlFrame            0x08002d2b   Thumb Code    14  stm32f2x7_eth.o(.text)
    ETH_BackPressureActivationCmd            0x08002d39   Thumb Code    70  stm32f2x7_eth.o(.text)
    ETH_GetMACFlagStatus                     0x08002d7f   Thumb Code    20  stm32f2x7_eth.o(.text)
    ETH_GetMACITStatus                       0x08002d93   Thumb Code    20  stm32f2x7_eth.o(.text)
    ETH_MACITConfig                          0x08002da7   Thumb Code    26  stm32f2x7_eth.o(.text)
    ETH_MACAddressConfig                     0x08002dc1   Thumb Code    46  stm32f2x7_eth.o(.text)
    ETH_GetMACAddress                        0x08002def   Thumb Code    36  stm32f2x7_eth.o(.text)
    ETH_MACAddressPerfectFilterCmd           0x08002e13   Thumb Code    38  stm32f2x7_eth.o(.text)
    ETH_MACAddressFilterConfig               0x08002e39   Thumb Code    40  stm32f2x7_eth.o(.text)
    ETH_MACAddressMaskBytesFilterConfig      0x08002e61   Thumb Code    32  stm32f2x7_eth.o(.text)
    ETH_Get_Received_Frame                   0x08002e81   Thumb Code    82  stm32f2x7_eth.o(.text)
    ETH_Get_Received_Frame_interrupt         0x08002ed3   Thumb Code   268  stm32f2x7_eth.o(.text)
    ETH_Prepare_Transmit_Descriptors         0x08002fdf   Thumb Code   222  stm32f2x7_eth.o(.text)
    ETH_DMARxDescChainInit                   0x080030bd   Thumb Code    82  stm32f2x7_eth.o(.text)
    ETH_CheckFrameReceived                   0x0800310f   Thumb Code   216  stm32f2x7_eth.o(.text)
    ETH_DMATxDescChainInit                   0x080031e7   Thumb Code    70  stm32f2x7_eth.o(.text)
    ETH_GetDMATxDescFlagStatus               0x0800322d   Thumb Code    18  stm32f2x7_eth.o(.text)
    ETH_GetDMATxDescCollisionCount           0x0800323f   Thumb Code    10  stm32f2x7_eth.o(.text)
    ETH_SetDMATxDescOwnBit                   0x08003249   Thumb Code    10  stm32f2x7_eth.o(.text)
    ETH_DMATxDescTransmitITConfig            0x08003253   Thumb Code    22  stm32f2x7_eth.o(.text)
    ETH_DMATxDescFrameSegmentConfig          0x08003269   Thumb Code     8  stm32f2x7_eth.o(.text)
    ETH_DMATxDescChecksumInsertionConfig     0x08003271   Thumb Code     8  stm32f2x7_eth.o(.text)
    ETH_DMATxDescCRCCmd                      0x08003279   Thumb Code    22  stm32f2x7_eth.o(.text)
    ETH_DMATxDescSecondAddressChainedCmd     0x0800328f   Thumb Code    22  stm32f2x7_eth.o(.text)
    ETH_DMATxDescShortFramePaddingCmd        0x080032a5   Thumb Code    22  stm32f2x7_eth.o(.text)
    ETH_DMATxDescBufferSizeConfig            0x080032bb   Thumb Code    14  stm32f2x7_eth.o(.text)
    ETH_GetDMARxDescFlagStatus               0x080032c9   Thumb Code    18  stm32f2x7_eth.o(.text)
    ETH_GetDMAPTPRxDescExtendedFlagStatus    0x080032db   Thumb Code    18  stm32f2x7_eth.o(.text)
    ETH_SetDMARxDescOwnBit                   0x080032ed   Thumb Code    10  stm32f2x7_eth.o(.text)
    ETH_GetDMARxDescFrameLength              0x080032f7   Thumb Code    10  stm32f2x7_eth.o(.text)
    ETH_DMARxDescReceiveITConfig             0x08003301   Thumb Code    22  stm32f2x7_eth.o(.text)
    ETH_GetDMARxDescBufferSize               0x08003317   Thumb Code    20  stm32f2x7_eth.o(.text)
    ETH_GetRxPktSize                         0x0800332b   Thumb Code    42  stm32f2x7_eth.o(.text)
    ETH_EnhancedDescriptorCmd                0x08003355   Thumb Code    30  stm32f2x7_eth.o(.text)
    ETH_SoftwareReset                        0x08003373   Thumb Code    14  stm32f2x7_eth.o(.text)
    ETH_GetSoftwareResetStatus               0x08003381   Thumb Code    20  stm32f2x7_eth.o(.text)
    ETH_GetDMAFlagStatus                     0x08003395   Thumb Code    20  stm32f2x7_eth.o(.text)
    ETH_DMAClearFlag                         0x080033a9   Thumb Code     6  stm32f2x7_eth.o(.text)
    ETH_DMAITConfig                          0x080033af   Thumb Code    26  stm32f2x7_eth.o(.text)
    ETH_GetDMAITStatus                       0x080033c9   Thumb Code    20  stm32f2x7_eth.o(.text)
    ETH_DMAClearITPendingBit                 0x080033dd   Thumb Code     6  stm32f2x7_eth.o(.text)
    ETH_GetTransmitProcessState              0x080033e3   Thumb Code    10  stm32f2x7_eth.o(.text)
    ETH_GetReceiveProcessState               0x080033ed   Thumb Code    10  stm32f2x7_eth.o(.text)
    ETH_GetFlushTransmitFIFOStatus           0x080033f7   Thumb Code    20  stm32f2x7_eth.o(.text)
    ETH_GetDMAOverflowStatus                 0x0800340b   Thumb Code    20  stm32f2x7_eth.o(.text)
    ETH_GetRxOverflowMissedFrameCounter      0x0800341f   Thumb Code    10  stm32f2x7_eth.o(.text)
    ETH_GetBufferUnavailableMissedFrameCounter 0x08003429   Thumb Code     8  stm32f2x7_eth.o(.text)
    ETH_GetCurrentTxDescStartAddress         0x08003431   Thumb Code     6  stm32f2x7_eth.o(.text)
    ETH_GetCurrentRxDescStartAddress         0x08003437   Thumb Code     6  stm32f2x7_eth.o(.text)
    ETH_GetCurrentTxBufferAddress            0x0800343d   Thumb Code     6  stm32f2x7_eth.o(.text)
    ETH_GetCurrentRxBufferAddress            0x08003443   Thumb Code     6  stm32f2x7_eth.o(.text)
    ETH_ResumeDMATransmission                0x08003449   Thumb Code     8  stm32f2x7_eth.o(.text)
    ETH_ResumeDMAReception                   0x08003451   Thumb Code     8  stm32f2x7_eth.o(.text)
    ETH_SetReceiveWatchdogTimer              0x08003459   Thumb Code     6  stm32f2x7_eth.o(.text)
    ETH_PHYLoopBackCmd                       0x0800345f   Thumb Code    52  stm32f2x7_eth.o(.text)
    ETH_ResetWakeUpFrameFilterRegisterPointer 0x08003493   Thumb Code    14  stm32f2x7_eth.o(.text)
    ETH_SetWakeUpFrameFilterRegister         0x080034a1   Thumb Code    24  stm32f2x7_eth.o(.text)
    ETH_GlobalUnicastWakeUpCmd               0x080034b9   Thumb Code    30  stm32f2x7_eth.o(.text)
    ETH_GetPMTFlagStatus                     0x080034d7   Thumb Code    20  stm32f2x7_eth.o(.text)
    ETH_WakeUpFrameDetectionCmd              0x080034eb   Thumb Code    30  stm32f2x7_eth.o(.text)
    ETH_MagicPacketDetectionCmd              0x08003509   Thumb Code    30  stm32f2x7_eth.o(.text)
    ETH_PowerDownCmd                         0x08003527   Thumb Code    30  stm32f2x7_eth.o(.text)
    ETH_MMCCounterFullPreset                 0x08003545   Thumb Code    16  stm32f2x7_eth.o(.text)
    ETH_MMCCounterHalfPreset                 0x08003555   Thumb Code    56  stm32f2x7_eth.o(.text)
    ETH_MMCCounterFreezeCmd                  0x0800358d   Thumb Code    34  stm32f2x7_eth.o(.text)
    ETH_MMCResetOnReadCmd                    0x080035af   Thumb Code    34  stm32f2x7_eth.o(.text)
    ETH_MMCCounterRolloverCmd                0x080035d1   Thumb Code    34  stm32f2x7_eth.o(.text)
    ETH_MMCCountersReset                     0x080035f3   Thumb Code    16  stm32f2x7_eth.o(.text)
    ETH_MMCITConfig                          0x08003603   Thumb Code    78  stm32f2x7_eth.o(.text)
    ETH_GetMMCITStatus                       0x08003651   Thumb Code    66  stm32f2x7_eth.o(.text)
    ETH_GetMMCRegister                       0x08003693   Thumb Code     8  stm32f2x7_eth.o(.text)
    NVIC_PriorityGroupConfig                 0x080036a5   Thumb Code    10  misc.o(.text)
    NVIC_Init                                0x080036af   Thumb Code   106  misc.o(.text)
    NVIC_SetVectorTable                      0x08003719   Thumb Code    14  misc.o(.text)
    NVIC_SystemLPConfig                      0x08003727   Thumb Code    34  misc.o(.text)
    SysTick_CLKSourceConfig                  0x08003749   Thumb Code    40  misc.o(.text)
    EXTI_DeInit                              0x08003785   Thumb Code    28  stm32f2xx_exti.o(.text)
    EXTI_Init                                0x080037a1   Thumb Code   142  stm32f2xx_exti.o(.text)
    EXTI_StructInit                          0x0800382f   Thumb Code    16  stm32f2xx_exti.o(.text)
    EXTI_GenerateSWInterrupt                 0x0800383f   Thumb Code    16  stm32f2xx_exti.o(.text)
    EXTI_GetFlagStatus                       0x0800384f   Thumb Code    22  stm32f2xx_exti.o(.text)
    EXTI_ClearFlag                           0x08003865   Thumb Code     8  stm32f2xx_exti.o(.text)
    EXTI_GetITStatus                         0x0800386d   Thumb Code    34  stm32f2xx_exti.o(.text)
    EXTI_ClearITPendingBit                   0x0800388f   Thumb Code     8  stm32f2xx_exti.o(.text)
    GPIO_DeInit                              0x080038a1   Thumb Code   220  stm32f2xx_gpio.o(.text)
    GPIO_Init                                0x0800397d   Thumb Code   144  stm32f2xx_gpio.o(.text)
    GPIO_StructInit                          0x08003a0d   Thumb Code    18  stm32f2xx_gpio.o(.text)
    GPIO_PinLockConfig                       0x08003a1f   Thumb Code    34  stm32f2xx_gpio.o(.text)
    GPIO_ReadInputDataBit                    0x08003a41   Thumb Code    18  stm32f2xx_gpio.o(.text)
    GPIO_ReadInputData                       0x08003a53   Thumb Code     8  stm32f2xx_gpio.o(.text)
    GPIO_ReadOutputDataBit                   0x08003a5b   Thumb Code    18  stm32f2xx_gpio.o(.text)
    GPIO_ReadOutputData                      0x08003a6d   Thumb Code     8  stm32f2xx_gpio.o(.text)
    GPIO_SetBits                             0x08003a75   Thumb Code     4  stm32f2xx_gpio.o(.text)
    GPIO_ResetBits                           0x08003a79   Thumb Code     4  stm32f2xx_gpio.o(.text)
    GPIO_WriteBit                            0x08003a7d   Thumb Code    10  stm32f2xx_gpio.o(.text)
    GPIO_Write                               0x08003a87   Thumb Code     4  stm32f2xx_gpio.o(.text)
    GPIO_ToggleBits                          0x08003a8b   Thumb Code     8  stm32f2xx_gpio.o(.text)
    GPIO_PinAFConfig                         0x08003a93   Thumb Code    70  stm32f2xx_gpio.o(.text)
    IWDG_WriteAccessCmd                      0x08003afd   Thumb Code     6  stm32f2xx_iwdg.o(.text)
    IWDG_SetPrescaler                        0x08003b03   Thumb Code     6  stm32f2xx_iwdg.o(.text)
    IWDG_SetReload                           0x08003b09   Thumb Code     6  stm32f2xx_iwdg.o(.text)
    IWDG_ReloadCounter                       0x08003b0f   Thumb Code    10  stm32f2xx_iwdg.o(.text)
    IWDG_Enable                              0x08003b19   Thumb Code    10  stm32f2xx_iwdg.o(.text)
    IWDG_GetFlagStatus                       0x08003b23   Thumb Code    20  stm32f2xx_iwdg.o(.text)
    PWR_DeInit                               0x08003b3d   Thumb Code    22  stm32f2xx_pwr.o(.text)
    PWR_BackupAccessCmd                      0x08003b53   Thumb Code     6  stm32f2xx_pwr.o(.text)
    PWR_PVDLevelConfig                       0x08003b59   Thumb Code    18  stm32f2xx_pwr.o(.text)
    PWR_PVDCmd                               0x08003b6b   Thumb Code     6  stm32f2xx_pwr.o(.text)
    PWR_WakeUpPinCmd                         0x08003b71   Thumb Code     8  stm32f2xx_pwr.o(.text)
    PWR_BackupRegulatorCmd                   0x08003b79   Thumb Code     8  stm32f2xx_pwr.o(.text)
    PWR_FlashPowerDownCmd                    0x08003b81   Thumb Code     6  stm32f2xx_pwr.o(.text)
    PWR_EnterSTOPMode                        0x08003b87   Thumb Code    54  stm32f2xx_pwr.o(.text)
    PWR_EnterSTANDBYMode                     0x08003bbd   Thumb Code    42  stm32f2xx_pwr.o(.text)
    PWR_GetFlagStatus                        0x08003be7   Thumb Code    20  stm32f2xx_pwr.o(.text)
    PWR_ClearFlag                            0x08003bfb   Thumb Code    14  stm32f2xx_pwr.o(.text)
    RCC_DeInit                               0x08003c15   Thumb Code    60  stm32f2xx_rcc.o(.text)
    RCC_HSEConfig                            0x08003c51   Thumb Code    14  stm32f2xx_rcc.o(.text)
    RCC_GetFlagStatus                        0x08003c5f   Thumb Code    60  stm32f2xx_rcc.o(.text)
    RCC_WaitForHSEStartUp                    0x08003c9b   Thumb Code    56  stm32f2xx_rcc.o(.text)
    RCC_AdjustHSICalibrationValue            0x08003cd3   Thumb Code    20  stm32f2xx_rcc.o(.text)
    RCC_HSICmd                               0x08003ce7   Thumb Code     6  stm32f2xx_rcc.o(.text)
    RCC_LSEConfig                            0x08003ced   Thumb Code    46  stm32f2xx_rcc.o(.text)
    RCC_LSICmd                               0x08003d1b   Thumb Code     6  stm32f2xx_rcc.o(.text)
    RCC_PLLConfig                            0x08003d21   Thumb Code    32  stm32f2xx_rcc.o(.text)
    RCC_PLLCmd                               0x08003d41   Thumb Code     6  stm32f2xx_rcc.o(.text)
    RCC_PLLI2SConfig                         0x08003d47   Thumb Code    14  stm32f2xx_rcc.o(.text)
    RCC_PLLI2SCmd                            0x08003d55   Thumb Code     6  stm32f2xx_rcc.o(.text)
    RCC_ClockSecuritySystemCmd               0x08003d5b   Thumb Code     6  stm32f2xx_rcc.o(.text)
    RCC_MCO1Config                           0x08003d61   Thumb Code    28  stm32f2xx_rcc.o(.text)
    RCC_MCO2Config                           0x08003d7d   Thumb Code    28  stm32f2xx_rcc.o(.text)
    RCC_SYSCLKConfig                         0x08003d99   Thumb Code    20  stm32f2xx_rcc.o(.text)
    RCC_GetSYSCLKSource                      0x08003dad   Thumb Code    12  stm32f2xx_rcc.o(.text)
    RCC_HCLKConfig                           0x08003db9   Thumb Code    20  stm32f2xx_rcc.o(.text)
    RCC_PCLK1Config                          0x08003dcd   Thumb Code    20  stm32f2xx_rcc.o(.text)
    RCC_PCLK2Config                          0x08003de1   Thumb Code    22  stm32f2xx_rcc.o(.text)
    RCC_GetClocksFreq                        0x08003df7   Thumb Code   222  stm32f2xx_rcc.o(.text)
    RCC_RTCCLKConfig                         0x08003ed5   Thumb Code    54  stm32f2xx_rcc.o(.text)
    RCC_RTCCLKCmd                            0x08003f0b   Thumb Code     8  stm32f2xx_rcc.o(.text)
    RCC_BackupResetCmd                       0x08003f13   Thumb Code     8  stm32f2xx_rcc.o(.text)
    RCC_I2SCLKConfig                         0x08003f1b   Thumb Code     6  stm32f2xx_rcc.o(.text)
    RCC_AHB1PeriphClockCmd                   0x08003f21   Thumb Code    34  stm32f2xx_rcc.o(.text)
    RCC_AHB2PeriphClockCmd                   0x08003f43   Thumb Code    34  stm32f2xx_rcc.o(.text)
    RCC_AHB3PeriphClockCmd                   0x08003f65   Thumb Code    34  stm32f2xx_rcc.o(.text)
    RCC_APB1PeriphClockCmd                   0x08003f87   Thumb Code    34  stm32f2xx_rcc.o(.text)
    RCC_APB2PeriphClockCmd                   0x08003fa9   Thumb Code    34  stm32f2xx_rcc.o(.text)
    RCC_AHB1PeriphResetCmd                   0x08003fcb   Thumb Code    34  stm32f2xx_rcc.o(.text)
    RCC_AHB2PeriphResetCmd                   0x08003fed   Thumb Code    72  stm32f2xx_rcc.o(.text)
    RCC_AHB3PeriphResetCmd                   0x08004035   Thumb Code    34  stm32f2xx_rcc.o(.text)
    RCC_APB1PeriphResetCmd                   0x08004057   Thumb Code    34  stm32f2xx_rcc.o(.text)
    RCC_APB2PeriphResetCmd                   0x08004079   Thumb Code    34  stm32f2xx_rcc.o(.text)
    RCC_AHB1PeriphClockLPModeCmd             0x0800409b   Thumb Code    34  stm32f2xx_rcc.o(.text)
    RCC_AHB2PeriphClockLPModeCmd             0x080040bd   Thumb Code    34  stm32f2xx_rcc.o(.text)
    RCC_AHB3PeriphClockLPModeCmd             0x080040df   Thumb Code    34  stm32f2xx_rcc.o(.text)
    RCC_APB1PeriphClockLPModeCmd             0x08004101   Thumb Code    34  stm32f2xx_rcc.o(.text)
    RCC_APB2PeriphClockLPModeCmd             0x08004123   Thumb Code    34  stm32f2xx_rcc.o(.text)
    RCC_ITConfig                             0x08004145   Thumb Code    34  stm32f2xx_rcc.o(.text)
    RCC_ClearFlag                            0x08004167   Thumb Code    18  stm32f2xx_rcc.o(.text)
    RCC_GetITStatus                          0x08004179   Thumb Code    22  stm32f2xx_rcc.o(.text)
    RCC_ClearITPendingBit                    0x0800418f   Thumb Code     8  stm32f2xx_rcc.o(.text)
    RTC_WaitForSynchro                       0x0800419d   Thumb Code    92  stm32f2xx_rtc.o(.text)
    RTC_EnterInitMode                        0x080041f9   Thumb Code    84  stm32f2xx_rtc.o(.text)
    RTC_DeInit                               0x0800424d   Thumb Code   182  stm32f2xx_rtc.o(.text)
    RTC_ExitInitMode                         0x08004303   Thumb Code    18  stm32f2xx_rtc.o(.text)
    RTC_Init                                 0x08004315   Thumb Code    94  stm32f2xx_rtc.o(.text)
    RTC_StructInit                           0x08004373   Thumb Code    14  stm32f2xx_rtc.o(.text)
    RTC_WriteProtectionCmd                   0x08004381   Thumb Code    22  stm32f2xx_rtc.o(.text)
    RTC_RefClockCmd                          0x08004397   Thumb Code    76  stm32f2xx_rtc.o(.text)
    RTC_SetTime                              0x08004415   Thumb Code   184  stm32f2xx_rtc.o(.text)
    RTC_TimeStructInit                       0x080044cd   Thumb Code    12  stm32f2xx_rtc.o(.text)
    RTC_GetTime                              0x080044d9   Thumb Code    74  stm32f2xx_rtc.o(.text)
    RTC_SetDate                              0x08004523   Thumb Code   190  stm32f2xx_rtc.o(.text)
    RTC_DateStructInit                       0x080045e1   Thumb Code    14  stm32f2xx_rtc.o(.text)
    RTC_GetDate                              0x080045ef   Thumb Code    68  stm32f2xx_rtc.o(.text)
    RTC_SetAlarm                             0x08004633   Thumb Code   234  stm32f2xx_rtc.o(.text)
    RTC_AlarmStructInit                      0x0800471d   Thumb Code    22  stm32f2xx_rtc.o(.text)
    RTC_GetAlarm                             0x08004733   Thumb Code   114  stm32f2xx_rtc.o(.text)
    RTC_AlarmCmd                             0x080047a5   Thumb Code   116  stm32f2xx_rtc.o(.text)
    RTC_WakeUpClockConfig                    0x08004819   Thumb Code    46  stm32f2xx_rtc.o(.text)
    RTC_SetWakeUpCounter                     0x08004847   Thumb Code    24  stm32f2xx_rtc.o(.text)
    RTC_GetWakeUpCounter                     0x0800485f   Thumb Code    10  stm32f2xx_rtc.o(.text)
    RTC_WakeUpCmd                            0x08004869   Thumb Code   120  stm32f2xx_rtc.o(.text)
    RTC_DayLightSavingConfig                 0x080048e1   Thumb Code    54  stm32f2xx_rtc.o(.text)
    RTC_GetStoreOperation                    0x08004917   Thumb Code    12  stm32f2xx_rtc.o(.text)
    RTC_OutputConfig                         0x08004923   Thumb Code    54  stm32f2xx_rtc.o(.text)
    RTC_CoarseCalibConfig                    0x08004959   Thumb Code    56  stm32f2xx_rtc.o(.text)
    RTC_CoarseCalibCmd                       0x08004991   Thumb Code    82  stm32f2xx_rtc.o(.text)
    RTC_CalibOutputCmd                       0x080049e3   Thumb Code    50  stm32f2xx_rtc.o(.text)
    RTC_TimeStampCmd                         0x08004a15   Thumb Code    52  stm32f2xx_rtc.o(.text)
    RTC_GetTimeStamp                         0x08004a49   Thumb Code   144  stm32f2xx_rtc.o(.text)
    RTC_TamperTriggerConfig                  0x08004ad9   Thumb Code    38  stm32f2xx_rtc.o(.text)
    RTC_TamperCmd                            0x08004aff   Thumb Code    34  stm32f2xx_rtc.o(.text)
    RTC_WriteBackupRegister                  0x08004b21   Thumb Code    26  stm32f2xx_rtc.o(.text)
    RTC_ReadBackupRegister                   0x08004b3b   Thumb Code    28  stm32f2xx_rtc.o(.text)
    RTC_TamperPinSelection                   0x08004b57   Thumb Code    26  stm32f2xx_rtc.o(.text)
    RTC_TimeStampPinSelection                0x08004b71   Thumb Code    26  stm32f2xx_rtc.o(.text)
    RTC_OutputTypeConfig                     0x08004b8b   Thumb Code    26  stm32f2xx_rtc.o(.text)
    RTC_ITConfig                             0x08004ba5   Thumb Code    90  stm32f2xx_rtc.o(.text)
    RTC_GetFlagStatus                        0x08004bff   Thumb Code    36  stm32f2xx_rtc.o(.text)
    RTC_ClearFlag                            0x08004c23   Thumb Code    28  stm32f2xx_rtc.o(.text)
    RTC_GetITStatus                          0x08004c3f   Thumb Code    58  stm32f2xx_rtc.o(.text)
    RTC_ClearITPendingBit                    0x08004c79   Thumb Code    32  stm32f2xx_rtc.o(.text)
    SPI_I2S_DeInit                           0x08004ca5   Thumb Code    76  stm32f2xx_spi.o(.text)
    SPI_Init                                 0x08004cf1   Thumb Code    60  stm32f2xx_spi.o(.text)
    I2S_Init                                 0x08004d2d   Thumb Code   350  stm32f2xx_spi.o(.text)
    SPI_StructInit                           0x08004e8b   Thumb Code    24  stm32f2xx_spi.o(.text)
    I2S_StructInit                           0x08004ea3   Thumb Code    20  stm32f2xx_spi.o(.text)
    SPI_Cmd                                  0x08004eb7   Thumb Code    24  stm32f2xx_spi.o(.text)
    I2S_Cmd                                  0x08004ecf   Thumb Code    24  stm32f2xx_spi.o(.text)
    SPI_DataSizeConfig                       0x08004ee7   Thumb Code    18  stm32f2xx_spi.o(.text)
    SPI_BiDirectionalLineConfig              0x08004ef9   Thumb Code    28  stm32f2xx_spi.o(.text)
    SPI_NSSInternalSoftwareConfig            0x08004f15   Thumb Code    30  stm32f2xx_spi.o(.text)
    SPI_SSOutputCmd                          0x08004f33   Thumb Code    24  stm32f2xx_spi.o(.text)
    SPI_TIModeCmd                            0x08004f4b   Thumb Code    24  stm32f2xx_spi.o(.text)
    SPI_I2S_ReceiveData                      0x08004f63   Thumb Code     6  stm32f2xx_spi.o(.text)
    SPI_I2S_SendData                         0x08004f69   Thumb Code     4  stm32f2xx_spi.o(.text)
    SPI_CalculateCRC                         0x08004f6d   Thumb Code    24  stm32f2xx_spi.o(.text)
    SPI_TransmitCRC                          0x08004f85   Thumb Code    10  stm32f2xx_spi.o(.text)
    SPI_GetCRC                               0x08004f8f   Thumb Code    16  stm32f2xx_spi.o(.text)
    SPI_GetCRCPolynomial                     0x08004f9f   Thumb Code     6  stm32f2xx_spi.o(.text)
    SPI_I2S_DMACmd                           0x08004fa5   Thumb Code    18  stm32f2xx_spi.o(.text)
    SPI_I2S_ITConfig                         0x08004fb7   Thumb Code    32  stm32f2xx_spi.o(.text)
    SPI_I2S_GetFlagStatus                    0x08004fd7   Thumb Code    18  stm32f2xx_spi.o(.text)
    SPI_I2S_ClearFlag                        0x08004fe9   Thumb Code     6  stm32f2xx_spi.o(.text)
    SPI_I2S_GetITStatus                      0x08004fef   Thumb Code    52  stm32f2xx_spi.o(.text)
    SPI_I2S_ClearITPendingBit                0x08005023   Thumb Code    20  stm32f2xx_spi.o(.text)
    SYSCFG_DeInit                            0x0800504d   Thumb Code    22  stm32f2xx_syscfg.o(.text)
    SYSCFG_MemoryRemapConfig                 0x08005063   Thumb Code     6  stm32f2xx_syscfg.o(.text)
    SYSCFG_EXTILineConfig                    0x08005069   Thumb Code    66  stm32f2xx_syscfg.o(.text)
    SYSCFG_ETH_MediaInterfaceConfig          0x080050ab   Thumb Code     6  stm32f2xx_syscfg.o(.text)
    SYSCFG_CompensationCellCmd               0x080050b1   Thumb Code     6  stm32f2xx_syscfg.o(.text)
    SYSCFG_GetCompensationCellStatus         0x080050b7   Thumb Code    22  stm32f2xx_syscfg.o(.text)
    TIM_DeInit                               0x080050d9   Thumb Code   346  stm32f2xx_tim.o(.text)
    TIM_TimeBaseInit                         0x08005233   Thumb Code   104  stm32f2xx_tim.o(.text)
    TIM_TimeBaseStructInit                   0x0800529b   Thumb Code    18  stm32f2xx_tim.o(.text)
    TIM_PrescalerConfig                      0x080052ad   Thumb Code     6  stm32f2xx_tim.o(.text)
    TIM_CounterModeConfig                    0x080052b3   Thumb Code    18  stm32f2xx_tim.o(.text)
    TIM_SetCounter                           0x080052c5   Thumb Code     4  stm32f2xx_tim.o(.text)
    TIM_SetAutoreload                        0x080052c9   Thumb Code     4  stm32f2xx_tim.o(.text)
    TIM_GetCounter                           0x080052cd   Thumb Code     6  stm32f2xx_tim.o(.text)
    TIM_GetPrescaler                         0x080052d3   Thumb Code     6  stm32f2xx_tim.o(.text)
    TIM_UpdateDisableConfig                  0x080052d9   Thumb Code    24  stm32f2xx_tim.o(.text)
    TIM_UpdateRequestConfig                  0x080052f1   Thumb Code    24  stm32f2xx_tim.o(.text)
    TIM_ARRPreloadConfig                     0x08005309   Thumb Code    24  stm32f2xx_tim.o(.text)
    TIM_SelectOnePulseMode                   0x08005321   Thumb Code    18  stm32f2xx_tim.o(.text)
    TIM_SetClockDivision                     0x08005333   Thumb Code    18  stm32f2xx_tim.o(.text)
    TIM_Cmd                                  0x08005345   Thumb Code    24  stm32f2xx_tim.o(.text)
    TIM_OC1Init                              0x0800535d   Thumb Code   114  stm32f2xx_tim.o(.text)
    TIM_OC2Init                              0x080053cf   Thumb Code   154  stm32f2xx_tim.o(.text)
    TIM_OC3Init                              0x08005469   Thumb Code   204  stm32f2xx_tim.o(.text)
    TIM_OC4Init                              0x08005535   Thumb Code   112  stm32f2xx_tim.o(.text)
    TIM_OCStructInit                         0x080055a5   Thumb Code    20  stm32f2xx_tim.o(.text)
    TIM_SelectOCxM                           0x080055b9   Thumb Code    86  stm32f2xx_tim.o(.text)
    TIM_SetCompare1                          0x0800560f   Thumb Code     4  stm32f2xx_tim.o(.text)
    TIM_SetCompare2                          0x08005613   Thumb Code     4  stm32f2xx_tim.o(.text)
    TIM_SetCompare3                          0x08005617   Thumb Code     4  stm32f2xx_tim.o(.text)
    TIM_SetCompare4                          0x0800561b   Thumb Code     4  stm32f2xx_tim.o(.text)
    TIM_ForcedOC1Config                      0x0800561f   Thumb Code    18  stm32f2xx_tim.o(.text)
    TIM_ForcedOC2Config                      0x08005631   Thumb Code    26  stm32f2xx_tim.o(.text)
    TIM_ForcedOC3Config                      0x0800564b   Thumb Code    18  stm32f2xx_tim.o(.text)
    TIM_ForcedOC4Config                      0x0800565d   Thumb Code    26  stm32f2xx_tim.o(.text)
    TIM_OC1PreloadConfig                     0x08005677   Thumb Code    18  stm32f2xx_tim.o(.text)
    TIM_OC2PreloadConfig                     0x08005689   Thumb Code    26  stm32f2xx_tim.o(.text)
    TIM_OC3PreloadConfig                     0x080056a3   Thumb Code    18  stm32f2xx_tim.o(.text)
    TIM_OC4PreloadConfig                     0x080056b5   Thumb Code    26  stm32f2xx_tim.o(.text)
    TIM_OC1FastConfig                        0x080056cf   Thumb Code    18  stm32f2xx_tim.o(.text)
    TIM_OC2FastConfig                        0x080056e1   Thumb Code    26  stm32f2xx_tim.o(.text)
    TIM_OC3FastConfig                        0x080056fb   Thumb Code    18  stm32f2xx_tim.o(.text)
    TIM_OC4FastConfig                        0x0800570d   Thumb Code    26  stm32f2xx_tim.o(.text)
    TIM_ClearOC1Ref                          0x08005727   Thumb Code    18  stm32f2xx_tim.o(.text)
    TIM_ClearOC2Ref                          0x08005739   Thumb Code    24  stm32f2xx_tim.o(.text)
    TIM_ClearOC3Ref                          0x08005751   Thumb Code    18  stm32f2xx_tim.o(.text)
    TIM_ClearOC4Ref                          0x08005763   Thumb Code    24  stm32f2xx_tim.o(.text)
    TIM_OC1PolarityConfig                    0x0800577b   Thumb Code    18  stm32f2xx_tim.o(.text)
    TIM_OC1NPolarityConfig                   0x0800578d   Thumb Code    18  stm32f2xx_tim.o(.text)
    TIM_OC2PolarityConfig                    0x0800579f   Thumb Code    26  stm32f2xx_tim.o(.text)
    TIM_OC2NPolarityConfig                   0x080057b9   Thumb Code    26  stm32f2xx_tim.o(.text)
    TIM_OC3PolarityConfig                    0x080057d3   Thumb Code    26  stm32f2xx_tim.o(.text)
    TIM_OC3NPolarityConfig                   0x080057ed   Thumb Code    26  stm32f2xx_tim.o(.text)
    TIM_OC4PolarityConfig                    0x08005807   Thumb Code    26  stm32f2xx_tim.o(.text)
    TIM_CCxCmd                               0x08005821   Thumb Code    30  stm32f2xx_tim.o(.text)
    TIM_CCxNCmd                              0x0800583f   Thumb Code    30  stm32f2xx_tim.o(.text)
    TIM_SetIC4Prescaler                      0x0800585d   Thumb Code    26  stm32f2xx_tim.o(.text)
    TIM_SetIC3Prescaler                      0x080058c7   Thumb Code    18  stm32f2xx_tim.o(.text)
    TIM_SetIC2Prescaler                      0x08005921   Thumb Code    26  stm32f2xx_tim.o(.text)
    TIM_SetIC1Prescaler                      0x08005995   Thumb Code    18  stm32f2xx_tim.o(.text)
    TIM_ICInit                               0x080059e1   Thumb Code   110  stm32f2xx_tim.o(.text)
    TIM_ICStructInit                         0x08005a4f   Thumb Code    18  stm32f2xx_tim.o(.text)
    TIM_PWMIConfig                           0x08005a61   Thumb Code   124  stm32f2xx_tim.o(.text)
    TIM_GetCapture1                          0x08005add   Thumb Code     6  stm32f2xx_tim.o(.text)
    TIM_GetCapture2                          0x08005ae3   Thumb Code     6  stm32f2xx_tim.o(.text)
    TIM_GetCapture3                          0x08005ae9   Thumb Code     6  stm32f2xx_tim.o(.text)
    TIM_GetCapture4                          0x08005aef   Thumb Code     6  stm32f2xx_tim.o(.text)
    TIM_BDTRConfig                           0x08005af5   Thumb Code    32  stm32f2xx_tim.o(.text)
    TIM_BDTRStructInit                       0x08005b15   Thumb Code    18  stm32f2xx_tim.o(.text)
    TIM_CtrlPWMOutputs                       0x08005b27   Thumb Code    30  stm32f2xx_tim.o(.text)
    TIM_SelectCOM                            0x08005b45   Thumb Code    24  stm32f2xx_tim.o(.text)
    TIM_CCPreloadControl                     0x08005b5d   Thumb Code    24  stm32f2xx_tim.o(.text)
    TIM_ITConfig                             0x08005b75   Thumb Code    18  stm32f2xx_tim.o(.text)
    TIM_GenerateEvent                        0x08005b87   Thumb Code     4  stm32f2xx_tim.o(.text)
    TIM_GetFlagStatus                        0x08005b8b   Thumb Code    18  stm32f2xx_tim.o(.text)
    TIM_ClearFlag                            0x08005b9d   Thumb Code     6  stm32f2xx_tim.o(.text)
    TIM_GetITStatus                          0x08005ba3   Thumb Code    34  stm32f2xx_tim.o(.text)
    TIM_ClearITPendingBit                    0x08005bc5   Thumb Code     6  stm32f2xx_tim.o(.text)
    TIM_DMAConfig                            0x08005bcb   Thumb Code    10  stm32f2xx_tim.o(.text)
    TIM_DMACmd                               0x08005bd5   Thumb Code    18  stm32f2xx_tim.o(.text)
    TIM_SelectCCDMA                          0x08005be7   Thumb Code    24  stm32f2xx_tim.o(.text)
    TIM_InternalClockConfig                  0x08005bff   Thumb Code    12  stm32f2xx_tim.o(.text)
    TIM_SelectInputTrigger                   0x08005c0b   Thumb Code    18  stm32f2xx_tim.o(.text)
    TIM_ITRxExternalClockConfig              0x08005c1d   Thumb Code    24  stm32f2xx_tim.o(.text)
    TIM_TIxExternalClockConfig               0x08005c35   Thumb Code    62  stm32f2xx_tim.o(.text)
    TIM_ETRConfig                            0x08005c73   Thumb Code    28  stm32f2xx_tim.o(.text)
    TIM_ETRClockMode1Config                  0x08005c8f   Thumb Code    54  stm32f2xx_tim.o(.text)
    TIM_ETRClockMode2Config                  0x08005cc5   Thumb Code    32  stm32f2xx_tim.o(.text)
    TIM_SelectOutputTrigger                  0x08005ce5   Thumb Code    18  stm32f2xx_tim.o(.text)
    TIM_SelectSlaveMode                      0x08005cf7   Thumb Code    18  stm32f2xx_tim.o(.text)
    TIM_SelectMasterSlaveMode                0x08005d09   Thumb Code    18  stm32f2xx_tim.o(.text)
    TIM_EncoderInterfaceConfig               0x08005d1b   Thumb Code    66  stm32f2xx_tim.o(.text)
    TIM_SelectHallSensor                     0x08005d5d   Thumb Code    24  stm32f2xx_tim.o(.text)
    TIM_RemapConfig                          0x08005d75   Thumb Code     6  stm32f2xx_tim.o(.text)
    USART_DeInit                             0x08005d7d   Thumb Code   156  stm32f2xx_usart.o(.text)
    USART_Init                               0x08005e19   Thumb Code   204  stm32f2xx_usart.o(.text)
    USART_StructInit                         0x08005ee5   Thumb Code    24  stm32f2xx_usart.o(.text)
    USART_ClockInit                          0x08005efd   Thumb Code    32  stm32f2xx_usart.o(.text)
    USART_ClockStructInit                    0x08005f1d   Thumb Code    12  stm32f2xx_usart.o(.text)
    USART_Cmd                                0x08005f29   Thumb Code    24  stm32f2xx_usart.o(.text)
    USART_SetPrescaler                       0x08005f41   Thumb Code    16  stm32f2xx_usart.o(.text)
    USART_OverSampling8Cmd                   0x08005f51   Thumb Code    22  stm32f2xx_usart.o(.text)
    USART_OneBitMethodCmd                    0x08005f67   Thumb Code    24  stm32f2xx_usart.o(.text)
    USART_SendData                           0x08005f7f   Thumb Code     8  stm32f2xx_usart.o(.text)
    USART_ReceiveData                        0x08005f87   Thumb Code    10  stm32f2xx_usart.o(.text)
    USART_SetAddress                         0x08005f91   Thumb Code    18  stm32f2xx_usart.o(.text)
    USART_ReceiverWakeUpCmd                  0x08005fa3   Thumb Code    24  stm32f2xx_usart.o(.text)
    USART_WakeUpConfig                       0x08005fbb   Thumb Code    18  stm32f2xx_usart.o(.text)
    USART_LINBreakDetectLengthConfig         0x08005fcd   Thumb Code    18  stm32f2xx_usart.o(.text)
    USART_LINCmd                             0x08005fdf   Thumb Code    24  stm32f2xx_usart.o(.text)
    USART_SendBreak                          0x08005ff7   Thumb Code    10  stm32f2xx_usart.o(.text)
    USART_HalfDuplexCmd                      0x08006001   Thumb Code    24  stm32f2xx_usart.o(.text)
    USART_SetGuardTime                       0x08006019   Thumb Code    16  stm32f2xx_usart.o(.text)
    USART_SmartCardCmd                       0x08006029   Thumb Code    24  stm32f2xx_usart.o(.text)
    USART_SmartCardNACKCmd                   0x08006041   Thumb Code    24  stm32f2xx_usart.o(.text)
    USART_IrDAConfig                         0x08006059   Thumb Code    18  stm32f2xx_usart.o(.text)
    USART_IrDACmd                            0x0800606b   Thumb Code    24  stm32f2xx_usart.o(.text)
    USART_DMACmd                             0x08006083   Thumb Code    18  stm32f2xx_usart.o(.text)
    USART_ITConfig                           0x08006095   Thumb Code    74  stm32f2xx_usart.o(.text)
    USART_GetFlagStatus                      0x080060df   Thumb Code    26  stm32f2xx_usart.o(.text)
    USART_ClearFlag                          0x080060f9   Thumb Code    18  stm32f2xx_usart.o(.text)
    USART_GetITStatus                        0x0800610b   Thumb Code   110  stm32f2xx_usart.o(.text)
    USART_ClearITPendingBit                  0x08006179   Thumb Code    30  stm32f2xx_usart.o(.text)
    ASCII_IsAlpha                            0x08006197   Thumb Code    48  lib_ascii.o(.text)
    ASCII_IsAlphaNum                         0x080061c7   Thumb Code    76  lib_ascii.o(.text)
    ASCII_IsLower                            0x08006213   Thumb Code    20  lib_ascii.o(.text)
    ASCII_IsUpper                            0x08006227   Thumb Code    20  lib_ascii.o(.text)
    ASCII_IsDig                              0x0800623b   Thumb Code    20  lib_ascii.o(.text)
    ASCII_IsDigOct                           0x0800624f   Thumb Code    20  lib_ascii.o(.text)
    ASCII_IsDigHex                           0x08006263   Thumb Code    36  lib_ascii.o(.text)
    ASCII_IsBlank                            0x08006287   Thumb Code    20  lib_ascii.o(.text)
    ASCII_IsSpace                            0x0800629b   Thumb Code    36  lib_ascii.o(.text)
    ASCII_IsPrint                            0x080062bf   Thumb Code    20  lib_ascii.o(.text)
    ASCII_IsGraph                            0x080062d3   Thumb Code    20  lib_ascii.o(.text)
    ASCII_IsPunct                            0x080062e7   Thumb Code   134  lib_ascii.o(.text)
    ASCII_IsCtrl                             0x0800636d   Thumb Code    26  lib_ascii.o(.text)
    ASCII_ToLower                            0x08006387   Thumb Code    32  lib_ascii.o(.text)
    ASCII_ToUpper                            0x080063a7   Thumb Code    32  lib_ascii.o(.text)
    ASCII_Cmp                                0x080063c7   Thumb Code    38  lib_ascii.o(.text)
    Mem_Init                                 0x080063ed   Thumb Code    54  lib_mem.o(.text)
    Mem_Set                                  0x08006423   Thumb Code    98  lib_mem.o(.text)
    Mem_Clr                                  0x08006485   Thumb Code    18  lib_mem.o(.text)
    Mem_Move                                 0x08006497   Thumb Code   204  lib_mem.o(.text)
    Mem_Cmp                                  0x08006563   Thumb Code   192  lib_mem.o(.text)
    Mem_HeapAlloc                            0x08006717   Thumb Code   256  lib_mem.o(.text)
    Mem_SegGetSizeRem                        0x08006817   Thumb Code   214  lib_mem.o(.text)
    Mem_HeapGetSizeRem                       0x080068ed   Thumb Code    22  lib_mem.o(.text)
    Mem_PoolClr                              0x08006903   Thumb Code    78  lib_mem.o(.text)
    Mem_PoolCreate                           0x08006951   Thumb Code  1076  lib_mem.o(.text)
    Mem_PoolBlkGetNbrAvail                   0x08006d85   Thumb Code   128  lib_mem.o(.text)
    Mem_PoolBlkGet                           0x08006e05   Thumb Code   224  lib_mem.o(.text)
    Mem_PoolBlkGetUsedAtIx                   0x08006ee5   Thumb Code   212  lib_mem.o(.text)
    Mem_PoolBlkFree                          0x0800701f   Thumb Code   338  lib_mem.o(.text)
    Mem_PoolBlkIxGet                         0x08007171   Thumb Code   314  lib_mem.o(.text)
    Str_Len_N                                0x080072b1   Thumb Code    28  lib_str.o(.text)
    Str_Len                                  0x080072cd   Thumb Code    20  lib_str.o(.text)
    Str_Copy_N                               0x080072e1   Thumb Code    70  lib_str.o(.text)
    Str_Copy                                 0x08007327   Thumb Code    24  lib_str.o(.text)
    Str_Cat_N                                0x0800733f   Thumb Code    90  lib_str.o(.text)
    Str_Cat                                  0x08007399   Thumb Code    24  lib_str.o(.text)
    Str_Cmp_N                                0x080073b1   Thumb Code   156  lib_str.o(.text)
    Str_Cmp                                  0x0800744d   Thumb Code    24  lib_str.o(.text)
    Str_CmpIgnoreCase_N                      0x08007465   Thumb Code   264  lib_str.o(.text)
    Str_CmpIgnoreCase                        0x0800756d   Thumb Code    24  lib_str.o(.text)
    Str_Char_N                               0x08007585   Thumb Code    74  lib_str.o(.text)
    Str_Char                                 0x080075cf   Thumb Code    24  lib_str.o(.text)
    Str_Char_Last_N                          0x080075e7   Thumb Code    76  lib_str.o(.text)
    Str_Char_Last                            0x08007633   Thumb Code    24  lib_str.o(.text)
    Str_Char_Replace_N                       0x0800764b   Thumb Code    52  lib_str.o(.text)
    Str_Char_Replace                         0x0800767f   Thumb Code    28  lib_str.o(.text)
    Str_Str_N                                0x0800769b   Thumb Code   182  lib_str.o(.text)
    Str_Str                                  0x08007751   Thumb Code    24  lib_str.o(.text)
    Str_FmtNbr_Int32U                        0x08007943   Thumb Code    46  lib_str.o(.text)
    Str_FmtNbr_Int32S                        0x08007971   Thumb Code    62  lib_str.o(.text)
    Str_ParseNbr_Int32U                      0x08007b6d   Thumb Code    30  lib_str.o(.text)
    Str_ParseNbr_Int32S                      0x08007b8b   Thumb Code    74  lib_str.o(.text)
    Mem_Copy                                 0x08007bd9   Thumb Code     0  lib_mem_a.o(.text)
    CPU_NameClr                              0x08007df9   Thumb Code    42  cpu_core.o(.text)
    CPU_Init                                 0x08007e39   Thumb Code    12  cpu_core.o(.text)
    CPU_SW_Exception                         0x08007e45   Thumb Code     4  cpu_core.o(.text)
    CPU_NameGet                              0x08007e49   Thumb Code    70  cpu_core.o(.text)
    CPU_NameSet                              0x08007e8f   Thumb Code    96  cpu_core.o(.text)
    CPU_TS_Get32                             0x08007eef   Thumb Code    12  cpu_core.o(.text)
    CPU_TS_Update                            0x08007efb   Thumb Code     2  cpu_core.o(.text)
    CPU_TS_TmrFreqGet                        0x08007efd   Thumb Code    30  cpu_core.o(.text)
    CPU_TS_TmrFreqSet                        0x08007f1b   Thumb Code     6  cpu_core.o(.text)
    CPU_CntLeadZeros08                       0x08007f21   Thumb Code    18  cpu_core.o(.text)
    CPU_CntLeadZeros16                       0x08007f33   Thumb Code    18  cpu_core.o(.text)
    CPU_CntLeadZeros32                       0x08007f45   Thumb Code    18  cpu_core.o(.text)
    CPU_CntLeadZeros64                       0x08007f57   Thumb Code   188  cpu_core.o(.text)
    CPU_CntTrailZeros08                      0x08008013   Thumb Code    22  cpu_core.o(.text)
    CPU_CntTrailZeros16                      0x08008029   Thumb Code    22  cpu_core.o(.text)
    CPU_CntTrailZeros32                      0x0800803f   Thumb Code    22  cpu_core.o(.text)
    CPU_CntTrailZeros64                      0x08008055   Thumb Code    62  cpu_core.o(.text)
    CPU_BitBandClr                           0x080080a1   Thumb Code    58  cpu_c.o(.text)
    CPU_BitBandSet                           0x080080db   Thumb Code    58  cpu_c.o(.text)
    CPU_IntSrcDis                            0x08008115   Thumb Code   328  cpu_c.o(.text)
    CPU_IntSrcEn                             0x0800825d   Thumb Code   328  cpu_c.o(.text)
    CPU_IntSrcPendClr                        0x080083a5   Thumb Code   164  cpu_c.o(.text)
    CPU_IntSrcPrioSet                        0x08008449   Thumb Code   522  cpu_c.o(.text)
    CPU_IntSrcPrioGet                        0x08008653   Thumb Code   450  cpu_c.o(.text)
    CPU_IntDis                               0x0800881d   Thumb Code     0  cpu_a.o(.text)
    CPU_IntEn                                0x08008821   Thumb Code     0  cpu_a.o(.text)
    CPU_SR_Save                              0x08008825   Thumb Code     0  cpu_a.o(.text)
    CPU_SR_Restore                           0x0800882d   Thumb Code     0  cpu_a.o(.text)
    CPU_WaitForInt                           0x08008833   Thumb Code     0  cpu_a.o(.text)
    CPU_WaitForExcept                        0x08008837   Thumb Code     0  cpu_a.o(.text)
    CPU_CntLeadZeros                         0x0800883b   Thumb Code     0  cpu_a.o(.text)
    CPU_CntTrailZeros                        0x08008841   Thumb Code     0  cpu_a.o(.text)
    CPU_RevBits                              0x0800884b   Thumb Code     0  cpu_a.o(.text)
    OSIdleTaskHook                           0x08008851   Thumb Code    16  os_cpu_c.o(.text)
    OSInitHook                               0x08008861   Thumb Code    42  os_cpu_c.o(.text)
    OSStatTaskHook                           0x0800888b   Thumb Code    16  os_cpu_c.o(.text)
    OSTaskCreateHook                         0x0800889b   Thumb Code    20  os_cpu_c.o(.text)
    OSTaskDelHook                            0x080088af   Thumb Code    20  os_cpu_c.o(.text)
    OSTaskReturnHook                         0x080088c3   Thumb Code    20  os_cpu_c.o(.text)
    OSTaskStkInit                            0x080088d7   Thumb Code   188  os_cpu_c.o(.text)
    OSTaskSwHook                             0x08008993   Thumb Code   120  os_cpu_c.o(.text)
    OSTimeTickHook                           0x08008a0b   Thumb Code    16  os_cpu_c.o(.text)
    OS_CPU_SysTickHandler                    0x08008a1b   Thumb Code    52  os_cpu_c.o(.text)
    OS_CPU_SysTickInit                       0x08008a4f   Thumb Code    44  os_cpu_c.o(.text)
    OSCfg_Init                               0x08008abd   Thumb Code     2  os_cfg_app.o(.text)
    OS_IdleTask                              0x08008ac1   Thumb Code    60  os_core.o(.text)
    OS_IdleTaskInit                          0x08008afd   Thumb Code    68  os_core.o(.text)
    OS_RdyListInit                           0x08008b41   Thumb Code    32  os_core.o(.text)
    OSInit                                   0x08008b61   Thumb Code   288  os_core.o(.text)
    OSIntEnter                               0x08008c81   Thumb Code    34  os_core.o(.text)
    OSIntExit                                0x08008ca3   Thumb Code   192  os_core.o(.text)
    OSSched                                  0x08008d63   Thumb Code   134  os_core.o(.text)
    OS_SchedLockTimeMeasStart                0x08008de9   Thumb Code    20  os_core.o(.text)
    OSSchedLock                              0x08008dfd   Thumb Code   104  os_core.o(.text)
    OS_SchedLockTimeMeasStop                 0x08008e65   Thumb Code    44  os_core.o(.text)
    OSSchedUnlock                            0x08008e91   Thumb Code   290  os_core.o(.text)
    OSSchedRoundRobinCfg                     0x08008fb3   Thumb Code    88  os_core.o(.text)
    OS_RdyListMoveHeadToTail                 0x0800900b   Thumb Code    68  os_core.o(.text)
    OSSchedRoundRobinYield                   0x0800904f   Thumb Code   164  os_core.o(.text)
    OSStart                                  0x080090f3   Thumb Code    78  os_core.o(.text)
    OSVersion                                0x08009141   Thumb Code    12  os_core.o(.text)
    OS_PendDbgNameAdd                        0x0800914d   Thumb Code    66  os_core.o(.text)
    OS_PendListInsertPrio                    0x0800918f   Thumb Code   102  os_core.o(.text)
    OS_PendDataInit                          0x080091f5   Thumb Code    38  os_core.o(.text)
    OS_RdyListRemove                         0x0800921b   Thumb Code    86  os_core.o(.text)
    OS_TaskBlock                             0x08009271   Thumb Code    56  os_core.o(.text)
    OS_Pend                                  0x080092a9   Thumb Code    98  os_core.o(.text)
    OS_PendListRemove1                       0x0800930b   Thumb Code   136  os_core.o(.text)
    OS_PendListRemove                        0x08009393   Thumb Code    48  os_core.o(.text)
    OS_PendAbort1                            0x080093c3   Thumb Code    36  os_core.o(.text)
    OS_RdyListInsertHead                     0x080093e7   Thumb Code    58  os_core.o(.text)
    OS_RdyListInsertTail                     0x08009421   Thumb Code    56  os_core.o(.text)
    OS_RdyListInsert                         0x08009459   Thumb Code    40  os_core.o(.text)
    OS_TaskRdy                               0x08009481   Thumb Code    28  os_core.o(.text)
    OS_PendAbort                             0x0800949d   Thumb Code   166  os_core.o(.text)
    OS_PendDbgNameRemove                     0x08009543   Thumb Code    34  os_core.o(.text)
    OS_PendListChangePrio                    0x08009565   Thumb Code    70  os_core.o(.text)
    OS_PendListInit                          0x080095ab   Thumb Code    10  os_core.o(.text)
    OS_PendListInsertHead                    0x080095b5   Thumb Code    32  os_core.o(.text)
    OS_PendObjDel1                           0x080095d5   Thumb Code    36  os_core.o(.text)
    OS_PendObjDel                            0x080095f9   Thumb Code   162  os_core.o(.text)
    OS_Post1                                 0x0800969b   Thumb Code    42  os_core.o(.text)
    OS_Post                                  0x080096c5   Thumb Code   192  os_core.o(.text)
    OS_SchedRoundRobin                       0x08009785   Thumb Code   208  os_core.o(.text)
    OS_Dbg_Init                              0x0800985d   Thumb Code   148  os_dbg.o(.text)
    OS_FlagDbgListAdd                        0x08009a09   Thumb Code    38  os_flag.o(.text)
    OSFlagCreate                             0x08009a2f   Thumb Code   116  os_flag.o(.text)
    OS_FlagClr                               0x08009aa3   Thumb Code    28  os_flag.o(.text)
    OS_FlagDbgListRemove                     0x08009abf   Thumb Code    44  os_flag.o(.text)
    OSFlagDel                                0x08009aeb   Thumb Code   306  os_flag.o(.text)
    OS_FlagBlock                             0x08009c1d   Thumb Code    58  os_flag.o(.text)
    OSFlagPend                               0x08009c57   Thumb Code  1248  os_flag.o(.text)
    OSFlagPendAbort                          0x0800a137   Thumb Code   236  os_flag.o(.text)
    OSFlagPendGetFlagsRdy                    0x0800a223   Thumb Code    86  os_flag.o(.text)
    OS_FlagTaskRdy                           0x0800a279   Thumb Code    86  os_flag.o(.text)
    OS_FlagPost                              0x0800a2cf   Thumb Code   418  os_flag.o(.text)
    OSFlagPost                               0x0800a471   Thumb Code   112  os_flag.o(.text)
    OS_FlagInit                              0x0800a4e1   Thumb Code    14  os_flag.o(.text)
    OS_MemDbgListAdd                         0x0800a501   Thumb Code    34  os_mem.o(.text)
    OSMemCreate                              0x0800a523   Thumb Code   232  os_mem.o(.text)
    OSMemGet                                 0x0800a60b   Thumb Code   100  os_mem.o(.text)
    OSMemPut                                 0x0800a66f   Thumb Code   112  os_mem.o(.text)
    OS_MemInit                               0x0800a6df   Thumb Code    14  os_mem.o(.text)
    OS_MsgPoolInit                           0x0800a6fd   Thumb Code   110  os_msg.o(.text)
    OS_MsgQFreeAll                           0x0800a76b   Thumb Code    62  os_msg.o(.text)
    OS_MsgQInit                              0x0800a7a9   Thumb Code    14  os_msg.o(.text)
    OS_MsgQGet                               0x0800a7b7   Thumb Code    98  os_msg.o(.text)
    OS_MsgQPut                               0x0800a819   Thumb Code   254  os_msg.o(.text)
    OS_MutexDbgListAdd                       0x0800a925   Thumb Code    38  os_mutex.o(.text)
    OSMutexCreate                            0x0800a94b   Thumb Code   122  os_mutex.o(.text)
    OS_MutexClr                              0x0800a9c5   Thumb Code    38  os_mutex.o(.text)
    OS_MutexDbgListRemove                    0x0800a9eb   Thumb Code    44  os_mutex.o(.text)
    OSMutexDel                               0x0800aa17   Thumb Code   442  os_mutex.o(.text)
    OSMutexPend                              0x0800abd1   Thumb Code   618  os_mutex.o(.text)
    OSMutexPendAbort                         0x0800ae3b   Thumb Code   236  os_mutex.o(.text)
    OSMutexPost                              0x0800af27   Thumb Code   354  os_mutex.o(.text)
    OS_MutexInit                             0x0800b089   Thumb Code    14  os_mutex.o(.text)
    OS_PrioInit                              0x0800b0b1   Thumb Code    20  os_prio.o(.text)
    OS_PrioGetHighest                        0x0800b0c5   Thumb Code    36  os_prio.o(.text)
    OS_PrioInsert                            0x0800b0e9   Thumb Code    32  os_prio.o(.text)
    OS_PrioRemove                            0x0800b109   Thumb Code    32  os_prio.o(.text)
    OS_QDbgListAdd                           0x0800b12d   Thumb Code    38  os_q.o(.text)
    OSQCreate                                0x0800b153   Thumb Code   130  os_q.o(.text)
    OS_QClr                                  0x0800b1d5   Thumb Code    40  os_q.o(.text)
    OS_QDbgListRemove                        0x0800b1fd   Thumb Code    44  os_q.o(.text)
    OSQDel                                   0x0800b229   Thumb Code   306  os_q.o(.text)
    OSQFlush                                 0x0800b35b   Thumb Code   106  os_q.o(.text)
    OSQPend                                  0x0800b3c5   Thumb Code   484  os_q.o(.text)
    OSQPendAbort                             0x0800b5a9   Thumb Code   236  os_q.o(.text)
    OS_QPost                                 0x0800b695   Thumb Code   190  os_q.o(.text)
    OSQPost                                  0x0800b753   Thumb Code   144  os_q.o(.text)
    OS_QInit                                 0x0800b7e3   Thumb Code    14  os_q.o(.text)
    OS_SemDbgListAdd                         0x0800b805   Thumb Code    38  os_sem.o(.text)
    OSSemCreate                              0x0800b82b   Thumb Code   116  os_sem.o(.text)
    OS_SemClr                                0x0800b89f   Thumb Code    28  os_sem.o(.text)
    OS_SemDbgListRemove                      0x0800b8bb   Thumb Code    44  os_sem.o(.text)
    OSSemDel                                 0x0800b8e7   Thumb Code   306  os_sem.o(.text)
    OSSemPend                                0x0800ba19   Thumb Code   406  os_sem.o(.text)
    OSSemPendAbort                           0x0800bbaf   Thumb Code   278  os_sem.o(.text)
    OS_SemPost                               0x0800bcc5   Thumb Code   294  os_sem.o(.text)
    OSSemPost                                0x0800bdeb   Thumb Code   108  os_sem.o(.text)
    OSSemSet                                 0x0800be57   Thumb Code   120  os_sem.o(.text)
    OS_SemInit                               0x0800becf   Thumb Code    14  os_sem.o(.text)
    OSStatReset                              0x0800beed   Thumb Code   262  os_stat.o(.text)
    OSStatTaskCPUUsageInit                   0x0800bff3   Thumb Code   212  os_stat.o(.text)
    OS_StatTask                              0x0800c0c7   Thumb Code   768  os_stat.o(.text)
    OS_StatTaskInit                          0x0800c3c7   Thumb Code   138  os_stat.o(.text)
    OSTaskChangePrio                         0x0800c495   Thumb Code   274  os_task.o(.text)
    OS_TaskDbgListAdd                        0x0800c5a7   Thumb Code    42  os_task.o(.text)
    OS_TaskInitTCB                           0x0800c5d1   Thumb Code   190  os_task.o(.text)
    OSTaskCreate                             0x0800c68f   Thumb Code   412  os_task.o(.text)
    OS_TaskDbgListRemove                     0x0800c82b   Thumb Code    64  os_task.o(.text)
    OSTaskDel                                0x0800c86b   Thumb Code   324  os_task.o(.text)
    OSTaskQFlush                             0x0800c9af   Thumb Code   110  os_task.o(.text)
    OSTaskQPend                              0x0800ca1d   Thumb Code   458  os_task.o(.text)
    OSTaskQPendAbort                         0x0800cbe7   Thumb Code   206  os_task.o(.text)
    OS_TaskQPost                             0x0800ccb5   Thumb Code   220  os_task.o(.text)
    OSTaskQPost                              0x0800cd91   Thumb Code    82  os_task.o(.text)
    OSTaskRegGet                             0x0800cde3   Thumb Code    78  os_task.o(.text)
    OSTaskRegGetID                           0x0800ce31   Thumb Code    84  os_task.o(.text)
    OSTaskRegSet                             0x0800ce85   Thumb Code    78  os_task.o(.text)
    OS_TaskResume                            0x0800ced3   Thumb Code   256  os_task.o(.text)
    OSTaskResume                             0x0800cfd3   Thumb Code    96  os_task.o(.text)
    OSTaskSemPend                            0x0800d033   Thumb Code   478  os_task.o(.text)
    OSTaskSemPendAbort                       0x0800d211   Thumb Code   214  os_task.o(.text)
    OS_TaskSemPost                           0x0800d2e7   Thumb Code   448  os_task.o(.text)
    OSTaskSemPost                            0x0800d4a7   Thumb Code    76  os_task.o(.text)
    OSTaskSemSet                             0x0800d4f3   Thumb Code    80  os_task.o(.text)
    OSTaskStkChk                             0x0800d543   Thumb Code   204  os_task.o(.text)
    OS_TaskSuspend                           0x0800d60f   Thumb Code   272  os_task.o(.text)
    OSTaskSuspend                            0x0800d71f   Thumb Code    48  os_task.o(.text)
    OSTaskTimeQuantaSet                      0x0800d74f   Thumb Code    96  os_task.o(.text)
    OS_TaskInit                              0x0800d7af   Thumb Code    18  os_task.o(.text)
    OS_TaskReturn                            0x0800d7c1   Thumb Code    20  os_task.o(.text)
    OS_TickListRemove                        0x0800d7f5   Thumb Code    56  os_tick.o(.text)
    OS_TickListUpdate                        0x0800d82d   Thumb Code   376  os_tick.o(.text)
    OS_TickTask                              0x0800d9a5   Thumb Code    38  os_tick.o(.text)
    OS_TickListInit                          0x0800d9cb   Thumb Code    32  os_tick.o(.text)
    OS_TickTaskInit                          0x0800d9eb   Thumb Code   130  os_tick.o(.text)
    OS_TickListInsert                        0x0800da6d   Thumb Code   430  os_tick.o(.text)
    OS_TickListResetPeak                     0x0800dc1b   Thumb Code    94  os_tick.o(.text)
    OSTimeDly                                0x0800dc79   Thumb Code   182  os_time.o(.text)
    OSTimeDlyHMSM                            0x0800dd2f   Thumb Code   394  os_time.o(.text)
    OSTimeDlyResume                          0x0800deb9   Thumb Code   334  os_time.o(.text)
    OSTimeGet                                0x0800e007   Thumb Code    46  os_time.o(.text)
    OSTimeSet                                0x0800e035   Thumb Code    68  os_time.o(.text)
    OSTimeTick                               0x0800e079   Thumb Code    68  os_time.o(.text)
    OS_TmrDbgListAdd                         0x0800e0d5   Thumb Code    34  os_tmr.o(.text)
    OSTmrCreate                              0x0800e0f7   Thumb Code   192  os_tmr.o(.text)
    OS_TmrClr                                0x0800e1b7   Thumb Code    36  os_tmr.o(.text)
    OS_TmrUnlink                             0x0800e1db   Thumb Code    72  os_tmr.o(.text)
    OS_TmrDbgListRemove                      0x0800e223   Thumb Code    44  os_tmr.o(.text)
    OSTmrDel                                 0x0800e24f   Thumb Code   182  os_tmr.o(.text)
    OSTmrRemainGet                           0x0800e305   Thumb Code   188  os_tmr.o(.text)
    OS_TmrLink                               0x0800e3c1   Thumb Code   196  os_tmr.o(.text)
    OSTmrStart                               0x0800e485   Thumb Code   212  os_tmr.o(.text)
    OSTmrStateGet                            0x0800e559   Thumb Code   134  os_tmr.o(.text)
    OSTmrStop                                0x0800e5df   Thumb Code   246  os_tmr.o(.text)
    OS_TmrTask                               0x0800e6d5   Thumb Code   176  os_tmr.o(.text)
    OS_TmrInit                               0x0800e785   Thumb Code   208  os_tmr.o(.text)
    OS_TmrResetPeak                          0x0800e855   Thumb Code    28  os_tmr.o(.text)
    Reset_Handler                            0x0800e8cd   Thumb Code     4  cstartup.o(.text)
    App_NMI_ISR                              0x0800e8d1   Thumb Code     2  cstartup.o(.text)
    App_Fault_ISR                            0x0800e8d3   Thumb Code     2  cstartup.o(.text)
    App_MemFault_ISR                         0x0800e8d5   Thumb Code     2  cstartup.o(.text)
    App_BusFault_ISR                         0x0800e8d7   Thumb Code     2  cstartup.o(.text)
    App_UsageFault_ISR                       0x0800e8d9   Thumb Code     2  cstartup.o(.text)
    App_Spurious_ISR                         0x0800e8db   Thumb Code     2  cstartup.o(.text)
    App_Reserved_ISR                         0x0800e8dd   Thumb Code     2  cstartup.o(.text)
    sys_mbox_new                             0x0800e8e5   Thumb Code    40  sys_arch.o(.text)
    sys_mbox_free                            0x0800e90d   Thumb Code    50  sys_arch.o(.text)
    sys_mbox_post                            0x0800e93f   Thumb Code   100  sys_arch.o(.text)
    sys_mbox_trypost                         0x0800e9a3   Thumb Code    42  sys_arch.o(.text)
    sys_arch_mbox_fetch                      0x0800e9cd   Thumb Code   172  sys_arch.o(.text)
    sys_arch_mbox_tryfetch                   0x0800ea79   Thumb Code    18  sys_arch.o(.text)
    sys_mbox_valid                           0x0800ea8b   Thumb Code    30  sys_arch.o(.text)
    sys_mbox_set_invalid                     0x0800eaa9   Thumb Code    20  sys_arch.o(.text)
    sys_sem_new                              0x0800eabd   Thumb Code    56  sys_arch.o(.text)
    sys_arch_sem_wait                        0x0800eaf5   Thumb Code   118  sys_arch.o(.text)
    sys_sem_signal                           0x0800eb6b   Thumb Code    42  sys_arch.o(.text)
    sys_sem_free                             0x0800eb95   Thumb Code    46  sys_arch.o(.text)
    sys_sem_valid                            0x0800ebc3   Thumb Code    30  sys_arch.o(.text)
    sys_sem_set_invalid                      0x0800ebe1   Thumb Code    20  sys_arch.o(.text)
    sys_init                                 0x0800ebf5   Thumb Code     2  sys_arch.o(.text)
    sys_thread_new                           0x0800ebf7   Thumb Code   122  sys_arch.o(.text)
    sys_now                                  0x0800ec71   Thumb Code    30  sys_arch.o(.text)
    rawudp_send_data                         0x0800ed9d   Thumb Code    76  rawudp.o(.text)
    rawudp_recv_callback                     0x0800ede9   Thumb Code   160  rawudp.o(.text)
    rawudp_task_create                       0x0800ef93   Thumb Code   110  rawudp.o(.text)
    rawudp_connection_close                  0x0800f001   Thumb Code    18  rawudp.o(.text)
    dhcp_task_delete                         0x0800f08d   Thumb Code    18  dhcp.o(.text)
    dhcp_task_create                         0x0800f1b9   Thumb Code   120  dhcp.o(.text)
    lwip_comm_default_ip_set                 0x0800f381   Thumb Code    90  lwip_comm_1.o(.text)
    lwip_comm_dev_init                       0x0800f3db   Thumb Code   128  lwip_comm_1.o(.text)
    lwip_comm_pkt_handle                     0x0800f45b   Thumb Code    10  lwip_comm_1.o(.text)
    tcpip_inpkt                              0x0800f51f   Thumb Code    38  tcpip.o(.text)
    tcpip_input                              0x0800f545   Thumb Code    40  tcpip.o(.text)
    tcpip_callback_with_block                0x0800f56d   Thumb Code   104  tcpip.o(.text)
    tcpip_send_msg_wait_sem                  0x0800f5d5   Thumb Code    30  tcpip.o(.text)
    tcpip_api_call                           0x0800f5f3   Thumb Code    30  tcpip.o(.text)
    tcpip_callbackmsg_new                    0x0800f611   Thumb Code    32  tcpip.o(.text)
    tcpip_callbackmsg_delete                 0x0800f631   Thumb Code    14  tcpip.o(.text)
    tcpip_trycallback                        0x0800f63f   Thumb Code    44  tcpip.o(.text)
    tcpip_init                               0x0800f66b   Thumb Code   102  tcpip.o(.text)
    pbuf_free_callback                       0x0800f6df   Thumb Code    16  tcpip.o(.text)
    mem_free_callback                        0x0800f6ef   Thumb Code    16  tcpip.o(.text)
    ethernet_input                           0x0800f7ed   Thumb Code   196  ethernet.o(.text)
    ethernet_output                          0x0800f8b1   Thumb Code   112  ethernet.o(.text)
    ethernetif_input                         0x0800faab   Thumb Code    36  ethernetif.o(.text)
    ethernetif_init                          0x0800facf   Thumb Code    82  ethernetif.o(.text)
    lwip_htons                               0x0800fb95   Thumb Code    12  def.o(.text)
    lwip_htonl                               0x0800fba1   Thumb Code    26  def.o(.text)
    lwip_strnstr                             0x0800fbbb   Thumb Code    74  def.o(.text)
    lwip_stricmp                             0x0800fc05   Thumb Code    60  def.o(.text)
    lwip_strnicmp                            0x0800fc41   Thumb Code    70  def.o(.text)
    lwip_itoa                                0x0800fc87   Thumb Code    98  def.o(.text)
    lwip_standard_chksum                     0x0800fced   Thumb Code    94  inet_chksum.o(.text)
    inet_chksum_pseudo                       0x0800fdc9   Thumb Code    76  inet_chksum.o(.text)
    ip_chksum_pseudo                         0x0800fe15   Thumb Code    36  inet_chksum.o(.text)
    inet_chksum_pseudo_partial               0x0800fee5   Thumb Code    80  inet_chksum.o(.text)
    ip_chksum_pseudo_partial                 0x0800ff35   Thumb Code    36  inet_chksum.o(.text)
    inet_chksum                              0x0800ff59   Thumb Code    20  inet_chksum.o(.text)
    inet_chksum_pbuf                         0x0800ff6d   Thumb Code    82  inet_chksum.o(.text)
    lwip_init                                0x08010015   Thumb Code    68  init.o(.text)
    mem_init                                 0x0801017f   Thumb Code   108  mem.o(.text)
    mem_free                                 0x080101eb   Thumb Code   174  mem.o(.text)
    mem_trim                                 0x08010299   Thumb Code   334  mem.o(.text)
    mem_malloc                               0x080103e7   Thumb Code   778  mem.o(.text)
    mem_calloc                               0x080106f1   Thumb Code    34  mem.o(.text)
    memp_init_pool                           0x080107c5   Thumb Code    44  memp.o(.text)
    memp_init                                0x080107f1   Thumb Code    26  memp.o(.text)
    memp_malloc_pool                         0x08010853   Thumb Code    42  memp.o(.text)
    memp_malloc                              0x0801087d   Thumb Code    50  memp.o(.text)
    memp_free_pool                           0x080108ef   Thumb Code    48  memp.o(.text)
    memp_free                                0x0801091f   Thumb Code    54  memp.o(.text)
    netif_init                               0x08010a2d   Thumb Code     2  netif.o(.text)
    netif_input                              0x08010a2f   Thumb Code    36  netif.o(.text)
    netif_set_ipaddr                         0x08010a77   Thumb Code    72  netif.o(.text)
    netif_set_gw                             0x08010abf   Thumb Code    12  netif.o(.text)
    netif_set_netmask                        0x08010acb   Thumb Code    12  netif.o(.text)
    netif_set_addr                           0x08010ad7   Thumb Code    72  netif.o(.text)
    netif_add                                0x08010b1f   Thumb Code   126  netif.o(.text)
    netif_set_default                        0x08010b9d   Thumb Code     6  netif.o(.text)
    netif_set_down                           0x08010ba3   Thumb Code    42  netif.o(.text)
    netif_remove                             0x08010bcd   Thumb Code   110  netif.o(.text)
    netif_find                               0x08010c3b   Thumb Code    64  netif.o(.text)
    netif_set_up                             0x08010c7b   Thumb Code    44  netif.o(.text)
    netif_set_link_up                        0x08010ca7   Thumb Code    52  netif.o(.text)
    netif_set_link_down                      0x08010cdb   Thumb Code    24  netif.o(.text)
    pbuf_free                                0x08010d61   Thumb Code   254  pbuf.o(.text)
    pbuf_alloc                               0x08010e5f   Thumb Code   660  pbuf.o(.text)
    pbuf_alloced_custom                      0x080110f3   Thumb Code   660  pbuf.o(.text)
    pbuf_realloc                             0x08011387   Thumb Code   276  pbuf.o(.text)
    pbuf_header                              0x0801157d   Thumb Code    18  pbuf.o(.text)
    pbuf_header_force                        0x0801158f   Thumb Code    18  pbuf.o(.text)
    pbuf_clen                                0x080115a1   Thumb Code    18  pbuf.o(.text)
    pbuf_ref                                 0x080115b3   Thumb Code    64  pbuf.o(.text)
    pbuf_cat                                 0x080115f3   Thumb Code   138  pbuf.o(.text)
    pbuf_chain                               0x0801167d   Thumb Code    22  pbuf.o(.text)
    pbuf_dechain                             0x08011693   Thumb Code   122  pbuf.o(.text)
    pbuf_copy                                0x0801170d   Thumb Code   764  pbuf.o(.text)
    pbuf_copy_partial                        0x08011a09   Thumb Code   190  pbuf.o(.text)
    pbuf_skip                                0x08011ae9   Thumb Code    28  pbuf.o(.text)
    pbuf_take                                0x08011b05   Thumb Code   260  pbuf.o(.text)
    pbuf_take_at                             0x08011c09   Thumb Code   118  pbuf.o(.text)
    pbuf_coalesce                            0x08011c7f   Thumb Code    84  pbuf.o(.text)
    pbuf_try_get_at                          0x08011cd3   Thumb Code    46  pbuf.o(.text)
    pbuf_get_at                              0x08011d01   Thumb Code   364  pbuf.o(.text)
    pbuf_put_at                              0x08011e6d   Thumb Code    42  pbuf.o(.text)
    pbuf_memcmp                              0x08011e97   Thumb Code    98  pbuf.o(.text)
    pbuf_memfind                             0x08011ef9   Thumb Code    72  pbuf.o(.text)
    pbuf_strstr                              0x08011f41   Thumb Code    60  pbuf.o(.text)
    tcp_init                                 0x08011f7d   Thumb Code     2  tcp.o(.text)
    tcp_seg_free                             0x08011f7f   Thumb Code    26  tcp.o(.text)
    tcp_segs_free                            0x08011f99   Thumb Code    24  tcp.o(.text)
    tcp_pcb_purge                            0x08011fb1   Thumb Code    64  tcp.o(.text)
    tcp_slowtmr                              0x08011ff1   Thumb Code  1416  tcp.o(.text)
    tcp_pcb_remove                           0x080125fd   Thumb Code   172  tcp.o(.text)
    tcp_close                                0x08012883   Thumb Code    28  tcp.o(.text)
    tcp_update_rcv_ann_wnd                   0x0801289f   Thumb Code   334  tcp.o(.text)
    tcp_recved                               0x080129ed   Thumb Code   148  tcp.o(.text)
    tcp_recv_null                            0x08012a81   Thumb Code    46  tcp.o(.text)
    tcp_process_refused_data                 0x08012aaf   Thumb Code   146  tcp.o(.text)
    tcp_fasttmr                              0x08012b41   Thumb Code   130  tcp.o(.text)
    tcp_tmr                                  0x08012bc3   Thumb Code    30  tcp.o(.text)
    tcp_shutdown                             0x08012be1   Thumb Code    98  tcp.o(.text)
    tcp_abandon                              0x08012c43   Thumb Code   248  tcp.o(.text)
    tcp_abort                                0x08012d3b   Thumb Code    14  tcp.o(.text)
    tcp_bind                                 0x08012da9   Thumb Code   380  tcp.o(.text)
    tcp_listen_with_backlog_and_err          0x08012f39   Thumb Code   214  tcp.o(.text)
    tcp_listen_with_backlog                  0x0801300f   Thumb Code    18  tcp.o(.text)
    tcp_eff_send_mss_impl                    0x08013021   Thumb Code    58  tcp.o(.text)
    tcp_next_iss                             0x0801305b   Thumb Code    22  tcp.o(.text)
    tcp_connect                              0x08013071   Thumb Code   340  tcp.o(.text)
    tcp_txnow                                0x080131c5   Thumb Code    30  tcp.o(.text)
    tcp_setprio                              0x080131e3   Thumb Code     4  tcp.o(.text)
    tcp_alloc                                0x0801337b   Thumb Code   168  tcp.o(.text)
    tcp_new                                  0x08013423   Thumb Code    10  tcp.o(.text)
    tcp_new_ip_type                          0x0801342d   Thumb Code    16  tcp.o(.text)
    tcp_arg                                  0x0801343d   Thumb Code     6  tcp.o(.text)
    tcp_recv                                 0x08013443   Thumb Code    44  tcp.o(.text)
    tcp_sent                                 0x0801346f   Thumb Code    44  tcp.o(.text)
    tcp_err                                  0x0801349b   Thumb Code    46  tcp.o(.text)
    tcp_accept                               0x080134c9   Thumb Code    16  tcp.o(.text)
    tcp_poll                                 0x080134d9   Thumb Code    46  tcp.o(.text)
    tcp_netif_ip_addr_changed                0x08013531   Thumb Code    70  tcp.o(.text)
    tcp_debug_state_str                      0x08013577   Thumb Code    10  tcp.o(.text)
    tcp_input                                0x08014849   Thumb Code  1878  tcp_in.o(.text)
    tcp_trigger_input_pcb_close              0x08014f9f   Thumb Code    14  tcp_in.o(.text)
    tcp_enqueue_flags                        0x08015167   Thumb Code   394  tcp_out.o(.text)
    tcp_send_fin                             0x080152f1   Thumb Code    74  tcp_out.o(.text)
    tcp_write                                0x080155c7   Thumb Code  1900  tcp_out.o(.text)
    tcp_send_empty_ack                       0x08015d33   Thumb Code   142  tcp_out.o(.text)
    tcp_output                               0x08015e97   Thumb Code   862  tcp_out.o(.text)
    tcp_rst                                  0x080161f5   Thumb Code   182  tcp_out.o(.text)
    tcp_rexmit_rto                           0x080162ab   Thumb Code    66  tcp_out.o(.text)
    tcp_rexmit                               0x080162ed   Thumb Code    98  tcp_out.o(.text)
    tcp_rexmit_fast                          0x0801634f   Thumb Code   110  tcp_out.o(.text)
    tcp_keepalive                            0x080163bd   Thumb Code   114  tcp_out.o(.text)
    tcp_zero_window_probe                    0x0801642f   Thumb Code   264  tcp_out.o(.text)
    sys_timeout                              0x08016539   Thumb Code   226  timeouts.o(.text)
    tcp_timer_needed                         0x08016643   Thumb Code    38  timeouts.o(.text)
    sys_timeouts_init                        0x0801667f   Thumb Code    38  timeouts.o(.text)
    sys_untimeout                            0x080166a5   Thumb Code    90  timeouts.o(.text)
    sys_restart_timeouts                     0x08016771   Thumb Code    12  timeouts.o(.text)
    sys_timeouts_mbox_fetch                  0x080167ad   Thumb Code    58  timeouts.o(.text)
    udp_init                                 0x08016891   Thumb Code     2  udp.o(.text)
    udp_input                                0x08016925   Thumb Code   362  udp.o(.text)
    udp_bind                                 0x08016a8f   Thumb Code   138  udp.o(.text)
    udp_sendto_if_src                        0x08016b19   Thumb Code   256  udp.o(.text)
    udp_sendto_if                            0x08016c19   Thumb Code    82  udp.o(.text)
    udp_sendto                               0x08016c6b   Thumb Code   210  udp.o(.text)
    udp_send                                 0x08016d3d   Thumb Code    30  udp.o(.text)
    udp_connect                              0x08016d5b   Thumb Code   104  udp.o(.text)
    udp_disconnect                           0x08016dc3   Thumb Code    16  udp.o(.text)
    udp_recv                                 0x08016dd3   Thumb Code     6  udp.o(.text)
    udp_remove                               0x08016dd9   Thumb Code    64  udp.o(.text)
    udp_new                                  0x08016e19   Thumb Code    28  udp.o(.text)
    udp_new_ip_type                          0x08016e35   Thumb Code    14  udp.o(.text)
    udp_netif_ip_addr_changed                0x08016e43   Thumb Code    42  udp.o(.text)
    dhcp_renew                               0x08017fed   Thumb Code   178  dhcp_2.o(.text)
    dhcp_supplied_address                    0x080181d9   Thumb Code    40  dhcp_2.o(.text)
    dhcp_release                             0x08018201   Thumb Code   162  dhcp_2.o(.text)
    dhcp_coarse_tmr                          0x080182a3   Thumb Code   100  dhcp_2.o(.text)
    dhcp_fine_tmr                            0x080184b3   Thumb Code    54  dhcp_2.o(.text)
    dhcp_set_struct                          0x080184e9   Thumb Code    98  dhcp_2.o(.text)
    dhcp_cleanup                             0x0801854b   Thumb Code    46  dhcp_2.o(.text)
    dhcp_stop                                0x08018579   Thumb Code    92  dhcp_2.o(.text)
    dhcp_start                               0x080185d5   Thumb Code   230  dhcp_2.o(.text)
    dhcp_inform                              0x080186bb   Thumb Code   144  dhcp_2.o(.text)
    dhcp_network_changed                     0x0801874b   Thumb Code    74  dhcp_2.o(.text)
    dhcp_arp_reply                           0x080188d3   Thumb Code    64  dhcp_2.o(.text)
    etharp_request                           0x08018a63   Thumb Code    18  etharp.o(.text)
    etharp_tmr                               0x08018a75   Thumb Code   216  etharp.o(.text)
    etharp_cleanup_netif                     0x08018f19   Thumb Code    52  etharp.o(.text)
    etharp_find_addr                         0x08018f4d   Thumb Code   110  etharp.o(.text)
    etharp_get_entry                         0x08018fbb   Thumb Code   164  etharp.o(.text)
    etharp_input                             0x0801905f   Thumb Code   214  etharp.o(.text)
    etharp_query                             0x080192d9   Thumb Code   472  etharp.o(.text)
    etharp_output                            0x080194b1   Thumb Code   376  etharp.o(.text)
    icmp_input                               0x08019685   Thumb Code   470  icmp.o(.text)
    icmp_dest_unreach                        0x080198f1   Thumb Code    18  icmp.o(.text)
    icmp_time_exceeded                       0x08019903   Thumb Code    18  icmp.o(.text)
    ip4_route                                0x080199f9   Thumb Code   134  ip4.o(.text)
    ip4_input                                0x08019a7f   Thumb Code   510  ip4.o(.text)
    ip4_output_if_src                        0x08019c7d   Thumb Code   336  ip4.o(.text)
    ip4_output_if                            0x08019dcd   Thumb Code   206  ip4.o(.text)
    ip4_output                               0x08019e9b   Thumb Code    86  ip4.o(.text)
    ip4_addr_isbroadcast_u32                 0x08019ef1   Thumb Code    78  ip4_addr.o(.text)
    ip4_addr_netmask_valid                   0x08019f3f   Thumb Code    56  ip4_addr.o(.text)
    ip4addr_aton                             0x08019f77   Thumb Code   414  ip4_addr.o(.text)
    ipaddr_addr                              0x0801a115   Thumb Code    24  ip4_addr.o(.text)
    ip4addr_ntoa_r                           0x0801a12d   Thumb Code   168  ip4_addr.o(.text)
    ip4addr_ntoa                             0x0801a1d5   Thumb Code    16  ip4_addr.o(.text)
    ip_reass_tmr                             0x0801a38f   Thumb Code    48  ip4_frag.o(.text)
    ip4_reass                                0x0801a7c9   Thumb Code   474  ip4_frag.o(.text)
    ip4_frag                                 0x0801aa29   Thumb Code   716  ip4_frag.o(.text)
    __aeabi_memcpy                           0x0801acf9   Thumb Code    36  memcpya.o(.text)
    __aeabi_memcpy4                          0x0801acf9   Thumb Code     0  memcpya.o(.text)
    __aeabi_memcpy8                          0x0801acf9   Thumb Code     0  memcpya.o(.text)
    __aeabi_memset                           0x0801ad1d   Thumb Code    14  memseta.o(.text)
    __aeabi_memset4                          0x0801ad1d   Thumb Code     0  memseta.o(.text)
    __aeabi_memset8                          0x0801ad1d   Thumb Code     0  memseta.o(.text)
    __aeabi_memclr                           0x0801ad2b   Thumb Code     4  memseta.o(.text)
    __aeabi_memclr4                          0x0801ad2b   Thumb Code     0  memseta.o(.text)
    __aeabi_memclr8                          0x0801ad2b   Thumb Code     0  memseta.o(.text)
    _memset$wrapper                          0x0801ad2f   Thumb Code    18  memseta.o(.text)
    strlen                                   0x0801ad41   Thumb Code    14  strlen.o(.text)
    strcmp                                   0x0801ad4f   Thumb Code    28  strcmp.o(.text)
    memcmp                                   0x0801ad6b   Thumb Code    26  memcmp.o(.text)
    strncmp                                  0x0801ad85   Thumb Code    30  strncmp.o(.text)
    __aeabi_uidiv                            0x0801ada3   Thumb Code     0  uidiv.o(.text)
    __aeabi_uidivmod                         0x0801ada3   Thumb Code    44  uidiv.o(.text)
    __scatterload                            0x0801add1   Thumb Code    28  init.o(.text)
    __scatterload_rt2                        0x0801add1   Thumb Code     0  init.o(.text)
    __I$use$semihosting$fputc                0x0801adf5   Thumb Code     0  iusesemip.o(.text)
    __decompress                             0x0801adf5   Thumb Code     0  __dczerorl2.o(.text)
    __decompress1                            0x0801adf5   Thumb Code    86  __dczerorl2.o(.text)
    __semihosting_library_function           0x0801adf5   Thumb Code     0  semi.o(.text)
    OSStartHighRdy                           0x0801ae4d   Thumb Code     0  os_cpu_a.o(CODE)
    OS_CPU_PendSVHandler                     0x0801ae6f   Thumb Code     0  os_cpu_a.o(CODE)
    __0printf$3                              0x0801aed1   Thumb Code    22  printf3.o(i.__0printf$3)
    __1printf$3                              0x0801aed1   Thumb Code     0  printf3.o(i.__0printf$3)
    __2printf                                0x0801aed1   Thumb Code     0  printf3.o(i.__0printf$3)
    __0sprintf$3                             0x0801aef1   Thumb Code    34  printf3.o(i.__0sprintf$3)
    __1sprintf$3                             0x0801aef1   Thumb Code     0  printf3.o(i.__0sprintf$3)
    __2sprintf                               0x0801aef1   Thumb Code     0  printf3.o(i.__0sprintf$3)
    __scatterload_copy                       0x0801af19   Thumb Code    14  handlers.o(i.__scatterload_copy)
    __scatterload_null                       0x0801af27   Thumb Code     2  handlers.o(i.__scatterload_null)
    __scatterload_zeroinit                   0x0801af29   Thumb Code    14  handlers.o(i.__scatterload_zeroinit)
    fputc                                    0x0801b0fb   Thumb Code    18  fputc.o(i.fputc)
    crc_table                                0x0801b10c   Data         512  protocol.o(.constdata)
    OSCfg_IdleTaskStkBasePtr                 0x0801b4a0   Data           4  os_cfg_app.o(.constdata)
    OSCfg_IdleTaskStkLimit                   0x0801b4a4   Data           4  os_cfg_app.o(.constdata)
    OSCfg_IdleTaskStkSize                    0x0801b4a8   Data           4  os_cfg_app.o(.constdata)
    OSCfg_IdleTaskStkSizeRAM                 0x0801b4ac   Data           4  os_cfg_app.o(.constdata)
    OSCfg_IntQBasePtr                        0x0801b4b0   Data           4  os_cfg_app.o(.constdata)
    OSCfg_IntQSize                           0x0801b4b4   Data           2  os_cfg_app.o(.constdata)
    OSCfg_IntQSizeRAM                        0x0801b4b8   Data           4  os_cfg_app.o(.constdata)
    OSCfg_IntQTaskStkBasePtr                 0x0801b4bc   Data           4  os_cfg_app.o(.constdata)
    OSCfg_IntQTaskStkLimit                   0x0801b4c0   Data           4  os_cfg_app.o(.constdata)
    OSCfg_IntQTaskStkSize                    0x0801b4c4   Data           4  os_cfg_app.o(.constdata)
    OSCfg_IntQTaskStkSizeRAM                 0x0801b4c8   Data           4  os_cfg_app.o(.constdata)
    OSCfg_ISRStkBasePtr                      0x0801b4cc   Data           4  os_cfg_app.o(.constdata)
    OSCfg_ISRStkSize                         0x0801b4d0   Data           4  os_cfg_app.o(.constdata)
    OSCfg_ISRStkSizeRAM                      0x0801b4d4   Data           4  os_cfg_app.o(.constdata)
    OSCfg_MsgPoolSize                        0x0801b4d8   Data           2  os_cfg_app.o(.constdata)
    OSCfg_MsgPoolSizeRAM                     0x0801b4dc   Data           4  os_cfg_app.o(.constdata)
    OSCfg_MsgPoolBasePtr                     0x0801b4e0   Data           4  os_cfg_app.o(.constdata)
    OSCfg_StatTaskPrio                       0x0801b4e4   Data           1  os_cfg_app.o(.constdata)
    OSCfg_StatTaskRate_Hz                    0x0801b4e8   Data           4  os_cfg_app.o(.constdata)
    OSCfg_StatTaskStkBasePtr                 0x0801b4ec   Data           4  os_cfg_app.o(.constdata)
    OSCfg_StatTaskStkLimit                   0x0801b4f0   Data           4  os_cfg_app.o(.constdata)
    OSCfg_StatTaskStkSize                    0x0801b4f4   Data           4  os_cfg_app.o(.constdata)
    OSCfg_StatTaskStkSizeRAM                 0x0801b4f8   Data           4  os_cfg_app.o(.constdata)
    OSCfg_StkSizeMin                         0x0801b4fc   Data           4  os_cfg_app.o(.constdata)
    OSCfg_TickRate_Hz                        0x0801b500   Data           4  os_cfg_app.o(.constdata)
    OSCfg_TickTaskPrio                       0x0801b504   Data           1  os_cfg_app.o(.constdata)
    OSCfg_TickTaskStkBasePtr                 0x0801b508   Data           4  os_cfg_app.o(.constdata)
    OSCfg_TickTaskStkLimit                   0x0801b50c   Data           4  os_cfg_app.o(.constdata)
    OSCfg_TickTaskStkSize                    0x0801b510   Data           4  os_cfg_app.o(.constdata)
    OSCfg_TickTaskStkSizeRAM                 0x0801b514   Data           4  os_cfg_app.o(.constdata)
    OSCfg_TickWheelSize                      0x0801b518   Data           2  os_cfg_app.o(.constdata)
    OSCfg_TickWheelSizeRAM                   0x0801b51c   Data           4  os_cfg_app.o(.constdata)
    OSCfg_TmrTaskPrio                        0x0801b520   Data           1  os_cfg_app.o(.constdata)
    OSCfg_TmrTaskRate_Hz                     0x0801b524   Data           4  os_cfg_app.o(.constdata)
    OSCfg_TmrTaskStkBasePtr                  0x0801b528   Data           4  os_cfg_app.o(.constdata)
    OSCfg_TmrTaskStkLimit                    0x0801b52c   Data           4  os_cfg_app.o(.constdata)
    OSCfg_TmrTaskStkSize                     0x0801b530   Data           4  os_cfg_app.o(.constdata)
    OSCfg_TmrTaskStkSizeRAM                  0x0801b534   Data           4  os_cfg_app.o(.constdata)
    OSCfg_TmrWheelSize                       0x0801b538   Data           2  os_cfg_app.o(.constdata)
    OSCfg_TmrWheelSizeRAM                    0x0801b53c   Data           4  os_cfg_app.o(.constdata)
    OSCfg_DataSizeRAM                        0x0801b540   Data           4  os_cfg_app.o(.constdata)
    OSDbg_DbgEn                              0x0801b544   Data           1  os_dbg.o(.constdata)
    OSDbg_ArgChkEn                           0x0801b545   Data           1  os_dbg.o(.constdata)
    OSDbg_AppHooksEn                         0x0801b546   Data           1  os_dbg.o(.constdata)
    OSDbg_EndiannessTest                     0x0801b548   Data           4  os_dbg.o(.constdata)
    OSDbg_CalledFromISRChkEn                 0x0801b54c   Data           1  os_dbg.o(.constdata)
    OSDbg_FlagEn                             0x0801b54d   Data           1  os_dbg.o(.constdata)
    OSDbg_FlagGrp                            0x0801b550   Data          40  os_dbg.o(.constdata)
    OSDbg_FlagDelEn                          0x0801b578   Data           1  os_dbg.o(.constdata)
    OSDbg_FlagModeClrEn                      0x0801b579   Data           1  os_dbg.o(.constdata)
    OSDbg_FlagPendAbortEn                    0x0801b57a   Data           1  os_dbg.o(.constdata)
    OSDbg_FlagGrpSize                        0x0801b57c   Data           2  os_dbg.o(.constdata)
    OSDbg_FlagWidth                          0x0801b57e   Data           2  os_dbg.o(.constdata)
    OSDbg_IntQ                               0x0801b580   Data           2  os_dbg.o(.constdata)
    OSDbg_ISRPostDeferredEn                  0x0801b582   Data           1  os_dbg.o(.constdata)
    OSDbg_Mem                                0x0801b584   Data          32  os_dbg.o(.constdata)
    OSDbg_MemEn                              0x0801b5a4   Data           1  os_dbg.o(.constdata)
    OSDbg_MemSize                            0x0801b5a6   Data           2  os_dbg.o(.constdata)
    OSDbg_MsgEn                              0x0801b5a8   Data           1  os_dbg.o(.constdata)
    OSDbg_MsgSize                            0x0801b5aa   Data           2  os_dbg.o(.constdata)
    OSDbg_MsgPoolSize                        0x0801b5ac   Data           2  os_dbg.o(.constdata)
    OSDbg_MsgQSize                           0x0801b5ae   Data           2  os_dbg.o(.constdata)
    OSDbg_Mutex                              0x0801b5b0   Data          44  os_dbg.o(.constdata)
    OSDbg_MutexEn                            0x0801b5dc   Data           1  os_dbg.o(.constdata)
    OSDbg_MutexDelEn                         0x0801b5dd   Data           1  os_dbg.o(.constdata)
    OSDbg_MutexPendAbortEn                   0x0801b5de   Data           1  os_dbg.o(.constdata)
    OSDbg_MutexSize                          0x0801b5e0   Data           2  os_dbg.o(.constdata)
    OSDbg_ObjTypeChkEn                       0x0801b5e2   Data           1  os_dbg.o(.constdata)
    OSDbg_PendMultiEn                        0x0801b5e3   Data           1  os_dbg.o(.constdata)
    OSDbg_PendDataSize                       0x0801b5e4   Data           2  os_dbg.o(.constdata)
    OSDbg_PendListSize                       0x0801b5e6   Data           2  os_dbg.o(.constdata)
    OSDbg_PendObjSize                        0x0801b5e8   Data           2  os_dbg.o(.constdata)
    OSDbg_PrioMax                            0x0801b5ea   Data           2  os_dbg.o(.constdata)
    OSDbg_PrioTblSize                        0x0801b5ec   Data           2  os_dbg.o(.constdata)
    OSDbg_PtrSize                            0x0801b5ee   Data           2  os_dbg.o(.constdata)
    OSDbg_Q                                  0x0801b5f0   Data          48  os_dbg.o(.constdata)
    OSDbg_QEn                                0x0801b620   Data           1  os_dbg.o(.constdata)
    OSDbg_QDelEn                             0x0801b621   Data           1  os_dbg.o(.constdata)
    OSDbg_QFlushEn                           0x0801b622   Data           1  os_dbg.o(.constdata)
    OSDbg_QPendAbortEn                       0x0801b623   Data           1  os_dbg.o(.constdata)
    OSDbg_QSize                              0x0801b624   Data           2  os_dbg.o(.constdata)
    OSDbg_SchedRoundRobinEn                  0x0801b626   Data           1  os_dbg.o(.constdata)
    OSDbg_Sem                                0x0801b628   Data          40  os_dbg.o(.constdata)
    OSDbg_SemEn                              0x0801b650   Data           1  os_dbg.o(.constdata)
    OSDbg_SemDelEn                           0x0801b651   Data           1  os_dbg.o(.constdata)
    OSDbg_SemPendAbortEn                     0x0801b652   Data           1  os_dbg.o(.constdata)
    OSDbg_SemSetEn                           0x0801b653   Data           1  os_dbg.o(.constdata)
    OSDbg_SemSize                            0x0801b654   Data           2  os_dbg.o(.constdata)
    OSDbg_RdyList                            0x0801b656   Data           2  os_dbg.o(.constdata)
    OSDbg_RdyListSize                        0x0801b658   Data           4  os_dbg.o(.constdata)
    OSDbg_StkWidth                           0x0801b65c   Data           1  os_dbg.o(.constdata)
    OSDbg_StatTaskEn                         0x0801b65d   Data           1  os_dbg.o(.constdata)
    OSDbg_StatTaskStkChkEn                   0x0801b65e   Data           1  os_dbg.o(.constdata)
    OSDbg_TaskChangePrioEn                   0x0801b65f   Data           1  os_dbg.o(.constdata)
    OSDbg_TaskDelEn                          0x0801b660   Data           1  os_dbg.o(.constdata)
    OSDbg_TaskQEn                            0x0801b661   Data           1  os_dbg.o(.constdata)
    OSDbg_TaskQPendAbortEn                   0x0801b662   Data           1  os_dbg.o(.constdata)
    OSDbg_TaskProfileEn                      0x0801b663   Data           1  os_dbg.o(.constdata)
    OSDbg_TaskRegTblSize                     0x0801b664   Data           2  os_dbg.o(.constdata)
    OSDbg_TaskSemPendAbortEn                 0x0801b666   Data           1  os_dbg.o(.constdata)
    OSDbg_TaskSuspendEn                      0x0801b667   Data           1  os_dbg.o(.constdata)
    OSDbg_TCBSize                            0x0801b668   Data           2  os_dbg.o(.constdata)
    OSDbg_TickSpokeSize                      0x0801b66a   Data           2  os_dbg.o(.constdata)
    OSDbg_TimeDlyHMSMEn                      0x0801b66c   Data           1  os_dbg.o(.constdata)
    OSDbg_TimeDlyResumeEn                    0x0801b66d   Data           1  os_dbg.o(.constdata)
    OSDbg_TLS_TblSize                        0x0801b66e   Data           2  os_dbg.o(.constdata)
    OSDbg_Tmr                                0x0801b670   Data          52  os_dbg.o(.constdata)
    OSDbg_TmrEn                              0x0801b6a4   Data           1  os_dbg.o(.constdata)
    OSDbg_TmrDelEn                           0x0801b6a5   Data           1  os_dbg.o(.constdata)
    OSDbg_TmrSize                            0x0801b6a6   Data           2  os_dbg.o(.constdata)
    OSDbg_TmrSpokeSize                       0x0801b6a8   Data           2  os_dbg.o(.constdata)
    OSDbg_VersionNbr                         0x0801b6aa   Data           2  os_dbg.o(.constdata)
    OSDbg_DataSize                           0x0801b6ac   Data           4  os_dbg.o(.constdata)
    pvNullPointer                            0x0801b6b0   Data           4  sys_arch.o(.constdata)
    ethbroadcast                             0x0801b6b4   Data           6  ethernet.o(.constdata)
    ethzero                                  0x0801b6ba   Data           6  ethernet.o(.constdata)
    memp_UDP_PCB                             0x0801b6c0   Data          12  memp.o(.constdata)
    memp_TCP_PCB                             0x0801b6cc   Data          12  memp.o(.constdata)
    memp_TCP_PCB_LISTEN                      0x0801b6d8   Data          12  memp.o(.constdata)
    memp_TCP_SEG                             0x0801b6e4   Data          12  memp.o(.constdata)
    memp_REASSDATA                           0x0801b6f0   Data          12  memp.o(.constdata)
    memp_FRAG_PBUF                           0x0801b6fc   Data          12  memp.o(.constdata)
    memp_NETBUF                              0x0801b708   Data          12  memp.o(.constdata)
    memp_NETCONN                             0x0801b714   Data          12  memp.o(.constdata)
    memp_TCPIP_MSG_API                       0x0801b720   Data          12  memp.o(.constdata)
    memp_SYS_TIMEOUT                         0x0801b72c   Data          12  memp.o(.constdata)
    memp_PBUF                                0x0801b738   Data          12  memp.o(.constdata)
    memp_PBUF_POOL                           0x0801b744   Data          12  memp.o(.constdata)
    memp_pools                               0x0801b750   Data          48  memp.o(.constdata)
    tcp_pcb_lists                            0x0801b7c0   Data          16  tcp.o(.constdata)
    lwip_cyclic_timers                       0x0801b7d0   Data          40  timeouts.o(.constdata)
    ip_addr_any                              0x0801b7f8   Data           4  ip4_addr.o(.constdata)
    ip_addr_broadcast                        0x0801b7fc   Data           4  ip4_addr.o(.constdata)
    Region$$Table$$Base                      0x0801ba2c   Number         0  anon$$obj.o(Region$$Table)
    Region$$Table$$Limit                     0x0801ba4c   Number         0  anon$$obj.o(Region$$Table)
    SystemCoreClock                          0x20000000   Data           4  system_stm32f2xx.o(.data)
    AHBPrescTable                            0x20000004   Data          16  system_stm32f2xx.o(.data)
    heart_cnt                                0x20000014   Data           4  protocol.o(.data)
    usart3_buff                              0x20000018   Data           4  usart.o(.data)
    gprs_rx_buff                             0x2000001c   Data           4  usart.o(.data)
    usart5_buff                              0x20000020   Data           4  usart.o(.data)
    usart2_rx_status                         0x20000024   Data           2  usart.o(.data)
    g_timeout_cnt                            0x20000028   Data           4  timer.o(.data)
    heart_tick                               0x2000002c   Data           4  timer.o(.data)
    lwip_localtime                           0x20000030   Data           4  lan8720.o(.data)
    DMATxDescToSet                           0x20000034   Data           4  stm32f2x7_eth.o(.data)
    DMARxDescToGet                           0x20000038   Data           4  stm32f2x7_eth.o(.data)
    DMA_RX_FRAME_infos                       0x2000003c   Data           4  stm32f2x7_eth.o(.data)
    Frame_Rx_index                           0x20000040   Data           4  stm32f2x7_eth.o(.data)
    Mem_PoolTbl                              0x20000054   Data           4  lib_mem.o(.data)
    CPU_TS_TmrFreq_Hz                        0x20000058   Data           4  cpu_core.o(.data)
    OS_CPU_ExceptStkBase                     0x2000005c   Data           4  os_cpu_c.o(.data)
    OSPrioTbl                                0x20000060   Data           8  os_prio.o(.data)
    OS_AppTaskCreateHookPtr                  0x20000068   Data           4  os_var.o(.data)
    OS_AppTaskDelHookPtr                     0x2000006c   Data           4  os_var.o(.data)
    OS_AppTaskReturnHookPtr                  0x20000070   Data           4  os_var.o(.data)
    OS_AppIdleTaskHookPtr                    0x20000074   Data           4  os_var.o(.data)
    OS_AppStatTaskHookPtr                    0x20000078   Data           4  os_var.o(.data)
    OS_AppTaskSwHookPtr                      0x2000007c   Data           4  os_var.o(.data)
    OS_AppTimeTickHookPtr                    0x20000080   Data           4  os_var.o(.data)
    OSIdleTaskCtr                            0x20000084   Data           4  os_var.o(.data)
    OSIntNestingCtr                          0x20000088   Data           1  os_var.o(.data)
    OSRunning                                0x20000089   Data           1  os_var.o(.data)
    OSFlagDbgListPtr                         0x2000008c   Data           4  os_var.o(.data)
    OSFlagQty                                0x20000090   Data           2  os_var.o(.data)
    OSMemDbgListPtr                          0x20000094   Data           4  os_var.o(.data)
    OSMemQty                                 0x20000098   Data           2  os_var.o(.data)
    OSMutexDbgListPtr                        0x2000009c   Data           4  os_var.o(.data)
    OSMutexQty                               0x200000a0   Data           2  os_var.o(.data)
    OSPrioCur                                0x200000a2   Data           1  os_var.o(.data)
    OSPrioHighRdy                            0x200000a3   Data           1  os_var.o(.data)
    OSPrioSaved                              0x200000a4   Data           1  os_var.o(.data)
    OSQDbgListPtr                            0x200000a8   Data           4  os_var.o(.data)
    OSQQty                                   0x200000ac   Data           2  os_var.o(.data)
    OSSchedLockTimeBegin                     0x200000b0   Data           4  os_var.o(.data)
    OSSchedLockTimeMax                       0x200000b4   Data           4  os_var.o(.data)
    OSSchedLockTimeMaxCur                    0x200000b8   Data           4  os_var.o(.data)
    OSSchedLockNestingCtr                    0x200000bc   Data           1  os_var.o(.data)
    OSSchedRoundRobinDfltTimeQuanta          0x200000c0   Data           4  os_var.o(.data)
    OSSchedRoundRobinEn                      0x200000c4   Data           1  os_var.o(.data)
    OSSemDbgListPtr                          0x200000c8   Data           4  os_var.o(.data)
    OSSemQty                                 0x200000cc   Data           2  os_var.o(.data)
    OSStatResetFlag                          0x200000ce   Data           1  os_var.o(.data)
    OSStatTaskCPUUsage                       0x200000d0   Data           2  os_var.o(.data)
    OSStatTaskCPUUsageMax                    0x200000d2   Data           2  os_var.o(.data)
    OSStatTaskCtr                            0x200000d4   Data           4  os_var.o(.data)
    OSStatTaskCtrMax                         0x200000d8   Data           4  os_var.o(.data)
    OSStatTaskCtrRun                         0x200000dc   Data           4  os_var.o(.data)
    OSStatTaskRdy                            0x200000e0   Data           1  os_var.o(.data)
    OSStatTaskTimeMax                        0x200000e4   Data           4  os_var.o(.data)
    OSTaskCtxSwCtr                           0x200000e8   Data           4  os_var.o(.data)
    OSTaskDbgListPtr                         0x200000ec   Data           4  os_var.o(.data)
    OSTaskQty                                0x200000f0   Data           2  os_var.o(.data)
    OSTaskRegNextAvailID                     0x200000f2   Data           1  os_var.o(.data)
    OSTickCtr                                0x200000f4   Data           4  os_var.o(.data)
    OSTickTaskTimeMax                        0x200000f8   Data           4  os_var.o(.data)
    OSTmrDbgListPtr                          0x200000fc   Data           4  os_var.o(.data)
    OSTmrQty                                 0x20000100   Data           2  os_var.o(.data)
    OSTmrTaskTimeMax                         0x20000104   Data           4  os_var.o(.data)
    OSTmrTickCtr                             0x20000108   Data           4  os_var.o(.data)
    OSTmrUpdateCnt                           0x2000010c   Data           4  os_var.o(.data)
    OSTmrUpdateCtr                           0x20000110   Data           4  os_var.o(.data)
    OSTCBCurPtr                              0x20000114   Data           4  os_var.o(.data)
    OSTCBHighRdyPtr                          0x20000118   Data           4  os_var.o(.data)
    udppcb                                   0x2000011c   Data           4  rawudp.o(.data)
    netif_list                               0x20000164   Data           4  netif.o(.data)
    netif_default                            0x20000168   Data           4  netif.o(.data)
    tcp_ticks                                0x20000174   Data           4  tcp.o(.data)
    tcp_bound_pcbs                           0x20000178   Data           4  tcp.o(.data)
    tcp_listen_pcbs                          0x2000017c   Data           4  tcp.o(.data)
    tcp_active_pcbs                          0x20000180   Data           4  tcp.o(.data)
    tcp_tw_pcbs                              0x20000184   Data           4  tcp.o(.data)
    tcp_active_pcbs_changed                  0x20000188   Data           1  tcp.o(.data)
    tcp_input_pcb                            0x200001b4   Data           4  tcp_in.o(.data)
    udp_pcbs                                 0x200001c8   Data           4  udp.o(.data)
    dhcp_rx_options_given                    0x200001cc   Data           8  dhcp_2.o(.data)
    __stdout                                 0x200001f0   Data           4  stdout.o(.data)
    gprs_init_task_TCB                       0x20000a40   Data         196  app.o(.bss)
    gprs_init_task_stk                       0x20000b04   Data         512  app.o(.bss)
    eth_init_task_TCB                        0x20000d04   Data         196  app.o(.bss)
    eth_init_task_stk                        0x20000dc8   Data        1024  app.o(.bss)
    usart3_task_TCB                          0x200011c8   Data         196  app.o(.bss)
    usart3_task_stk                          0x2000128c   Data        4000  app.o(.bss)
    protocol_task_TCB                        0x2000222c   Data         196  app.o(.bss)
    protocol_task_stk                        0x200022f0   Data        1024  app.o(.bss)
    usart3_msg                               0x200026f0   Data          48  app.o(.bss)
    eth_msg                                  0x20002720   Data          48  app.o(.bss)
    tmr1                                     0x20002750   Data          52  app.o(.bss)
    gprs                                     0x20002784   Data          52  app.o(.bss)
    dev_info                                 0x200027b8   Data          76  protocol.o(.bss)
    w25qxx_flash_buf                         0x2000294c   Data        4096  w25qxx.o(.bss)
    g_timer_cnt                              0x20003b50   Data          40  timer.o(.bss)
    DMARxDscrTab                             0x20003b78   Data         160  stm32f2x7_eth.o(.bss)
    DMATxDscrTab                             0x20003c18   Data         160  stm32f2x7_eth.o(.bss)
    Rx_Buff                                  0x20003cb8   Data        7620  stm32f2x7_eth.o(.bss)
    Tx_Buff                                  0x20005a7c   Data        7620  stm32f2x7_eth.o(.bss)
    RX_Frame_Descriptor                      0x20007840   Data          12  stm32f2x7_eth.o(.bss)
    Mem_PoolHeap                             0x2000784c   Data          72  lib_mem.o(.bss)
    Mem_Heap                                 0x20007894   Data        9216  lib_mem.o(.bss)
    CPU_Name                                 0x20009c94   Data          16  cpu_core.o(.bss)
    OSCfg_IdleTaskStk                        0x20009ca4   Data         512  os_cfg_app.o(.bss)
    OSCfg_ISRStk                             0x20009ea4   Data        1024  os_cfg_app.o(.bss)
    OSCfg_MsgPool                            0x2000a2a4   Data        1600  os_cfg_app.o(.bss)
    OSCfg_StatTaskStk                        0x2000a8e4   Data         512  os_cfg_app.o(.bss)
    OSCfg_TickTaskStk                        0x2000aae4   Data         512  os_cfg_app.o(.bss)
    OSCfg_TickWheel                          0x2000ace4   Data         128  os_cfg_app.o(.bss)
    OSCfg_TmrTaskStk                         0x2000ad64   Data         512  os_cfg_app.o(.bss)
    OSCfg_TmrWheel                           0x2000af64   Data         128  os_cfg_app.o(.bss)
    OSIdleTaskTCB                            0x2000afe4   Data         196  os_var.o(.bss)
    OSMsgPool                                0x2000b0a8   Data          12  os_var.o(.bss)
    OSRdyList                                0x2000b0b4   Data         768  os_var.o(.bss)
    OSStatTaskTCB                            0x2000b3b4   Data         196  os_var.o(.bss)
    OSTickTaskTCB                            0x2000b478   Data         196  os_var.o(.bss)
    OSTmrTaskTCB                             0x2000b53c   Data         196  os_var.o(.bss)
    tcpip_thread_task_stk                    0x2000b600   Data        4000  sys_arch.o(.bss)
    tcpip_thread_task_TCB                    0x2000c5a0   Data         196  sys_arch.o(.bss)
    rawudp_task_TCB                          0x2000c664   Data         196  rawudp.o(.bss)
    rawudp_task_stk                          0x2000c728   Data        1024  rawudp.o(.bss)
    rawudp_recv_buff                         0x2000cb28   Data         512  rawudp.o(.bss)
    rawudp_send_buff                         0x2000cd28   Data         512  rawudp.o(.bss)
    dhcp_task_TCB                            0x2000cf28   Data         196  dhcp.o(.bss)
    dhcp_task_stk                            0x2000cfec   Data        1024  dhcp.o(.bss)
    lwip_dev                                 0x2000d3ec   Data          23  lwip_comm_1.o(.bss)
    lwip_netif                               0x2000d404   Data          52  lwip_comm_1.o(.bss)
    lock_tcpip_core                          0x2000d468   Data          40  tcpip.o(.bss)
    ip_data                                  0x2000d490   Data          24  ip.o(.bss)
    ram_heap                                 0x2000d4a8   Data        5139  mem.o(.bss)
    memp_memory_UDP_PCB_base                 0x2000e8e4   Data         195  memp.o(.bss)
    memp_memory_TCP_PCB_base                 0x2000e9a7   Data        1483  memp.o(.bss)
    memp_memory_TCP_PCB_LISTEN_base          0x2000ef72   Data         171  memp.o(.bss)
    memp_memory_TCP_SEG_base                 0x2000f01d   Data         195  memp.o(.bss)
    memp_memory_REASSDATA_base               0x2000f0e0   Data         163  memp.o(.bss)
    memp_memory_FRAG_PBUF_base               0x2000f183   Data         363  memp.o(.bss)
    memp_memory_NETBUF_base                  0x2000f2ee   Data          35  memp.o(.bss)
    memp_memory_NETCONN_base                 0x2000f311   Data         691  memp.o(.bss)
    memp_memory_TCPIP_MSG_API_base           0x2000f5c4   Data         131  memp.o(.bss)
    memp_memory_SYS_TIMEOUT_base             0x2000f647   Data         131  memp.o(.bss)
    memp_memory_PBUF_base                    0x2000f6ca   Data         163  memp.o(.bss)
    memp_memory_PBUF_POOL_base               0x2000f76d   Data       15163  memp.o(.bss)
    dhcp_rx_options_val                      0x200132b8   Data          32  dhcp_2.o(.bss)
    __initial_sp                             0x200137d8   Data           0  cstartup.o(STACK)



==============================================================================

Memory Map of the image

  Image Entry point : 0x08000185

  Load Region LR_IROM1 (Base: 0x08000000, Size: 0x0001bc40, Max: 0x00080000, ABSOLUTE, COMPRESSED[0x0001ba7c])

    Execution Region ER_IROM1 (Base: 0x08000000, Size: 0x0001ba4c, Max: 0x00080000, ABSOLUTE)

    Base Addr    Size         Type   Attr      Idx    E Section Name        Object

    0x08000000   0x00000184   Data   RO         1610    RESET               cstartup.o
    0x08000184   0x00000000   Code   RO         2679  * .ARM.Collect$$$$00000000  mc_w.l(entry.o)
    0x08000184   0x00000004   Code   RO         2959    .ARM.Collect$$$$00000001  mc_w.l(entry2.o)
    0x08000188   0x00000004   Code   RO         2962    .ARM.Collect$$$$00000004  mc_w.l(entry5.o)
    0x0800018c   0x00000000   Code   RO         2964    .ARM.Collect$$$$00000008  mc_w.l(entry7b.o)
    0x0800018c   0x00000000   Code   RO         2966    .ARM.Collect$$$$0000000A  mc_w.l(entry8b.o)
    0x0800018c   0x00000008   Code   RO         2967    .ARM.Collect$$$$0000000B  mc_w.l(entry9a.o)
    0x08000194   0x00000000   Code   RO         2969    .ARM.Collect$$$$0000000D  mc_w.l(entry10a.o)
    0x08000194   0x00000000   Code   RO         2971    .ARM.Collect$$$$0000000F  mc_w.l(entry11a.o)
    0x08000194   0x00000004   Code   RO         2960    .ARM.Collect$$$$00002712  mc_w.l(entry2.o)
    0x08000198   0x00000424   Code   RO            2    .text               app.o
    0x080005bc   0x000001e0   Code   RO          370    .text               system_stm32f2xx.o
    0x0800079c   0x000007c8   Code   RO          392    .text               protocol.o
    0x08000f64   0x00000650   Code   RO          417    .text               bsp.o
    0x080015b4   0x00000428   Code   RO          450    .text               bsp_int.o
    0x080019dc   0x00000328   Code   RO          557    .text               w25qxx.o
    0x08001d04   0x000003cc   Code   RO          580    .text               usart.o
    0x080020d0   0x000000f4   Code   RO          626    .text               timer.o
    0x080021c4   0x00000084   Code   RO          650    .text               spi.o
    0x08002248   0x000002dc   Code   RO          666    .text               rtc.o
    0x08002524   0x0000034c   Code   RO          682    .text               lan8720.o
    0x08002870   0x00000e34   Code   RO          820    .text               stm32f2x7_eth.o
    0x080036a4   0x000000e0   Code   RO          840    .text               misc.o
    0x08003784   0x0000011c   Code   RO         1000    .text               stm32f2xx_exti.o
    0x080038a0   0x0000025c   Code   RO         1048    .text               stm32f2xx_gpio.o
    0x08003afc   0x00000040   Code   RO         1080    .text               stm32f2xx_iwdg.o
    0x08003b3c   0x000000d8   Code   RO         1096    .text               stm32f2xx_pwr.o
    0x08003c14   0x00000588   Code   RO         1112    .text               stm32f2xx_rcc.o
    0x0800419c   0x00000b08   Code   RO         1146    .text               stm32f2xx_rtc.o
    0x08004ca4   0x000003a8   Code   RO         1162    .text               stm32f2xx_spi.o
    0x0800504c   0x0000008c   Code   RO         1178    .text               stm32f2xx_syscfg.o
    0x080050d8   0x00000ca2   Code   RO         1194    .text               stm32f2xx_tim.o
    0x08005d7a   0x00000002   PAD
    0x08005d7c   0x0000041a   Code   RO         1210    .text               stm32f2xx_usart.o
    0x08006196   0x00000256   Code   RO         1241    .text               lib_ascii.o
    0x080063ec   0x00000ec4   Code   RO         1274    .text               lib_mem.o
    0x080072b0   0x00000928   Code   RO         1293    .text               lib_str.o
    0x08007bd8   0x00000220   Code   RO         1310    .text               lib_mem_a.o
    0x08007df8   0x000002a8   Code   RO         1313    .text               cpu_core.o
    0x080080a0   0x0000077c   Code   RO         1339    .text               cpu_c.o
    0x0800881c   0x00000034   Code   RO         1351    .text               cpu_a.o
    0x08008850   0x0000026c   Code   RO         1354    .text               os_cpu_c.o
    0x08008abc   0x00000002   Code   RO         1375    .text               os_cfg_app.o
    0x08008abe   0x00000002   PAD
    0x08008ac0   0x00000d9c   Code   RO         1398    .text               os_core.o
    0x0800985c   0x000001ac   Code   RO         1410    .text               os_dbg.o
    0x08009a08   0x00000af8   Code   RO         1425    .text               os_flag.o
    0x0800a500   0x000001fc   Code   RO         1443    .text               os_mem.o
    0x0800a6fc   0x00000228   Code   RO         1455    .text               os_msg.o
    0x0800a924   0x0000078c   Code   RO         1467    .text               os_mutex.o
    0x0800b0b0   0x0000007c   Code   RO         1491    .text               os_prio.o
    0x0800b12c   0x000006d8   Code   RO         1510    .text               os_q.o
    0x0800b804   0x000006e8   Code   RO         1522    .text               os_sem.o
    0x0800beec   0x000005a8   Code   RO         1534    .text               os_stat.o
    0x0800c494   0x00001360   Code   RO         1546    .text               os_task.o
    0x0800d7f4   0x00000484   Code   RO         1558    .text               os_tick.o
    0x0800dc78   0x0000045c   Code   RO         1570    .text               os_time.o
    0x0800e0d4   0x000007f8   Code   RO         1582    .text               os_tmr.o
    0x0800e8cc   0x00000018   Code   RO         1611    .text               cstartup.o
    0x0800e8e4   0x000004b8   Code   RO         1616    .text               sys_arch.o
    0x0800ed9c   0x000002f0   Code   RO         1654    .text               rawudp.o
    0x0800f08c   0x000002f4   Code   RO         1682    .text               dhcp.o
    0x0800f380   0x0000010c   Code   RO         1723    .text               lwip_comm_1.o
    0x0800f48c   0x00000360   Code   RO         2006    .text               tcpip.o
    0x0800f7ec   0x000001b4   Code   RO         2039    .text               ethernet.o
    0x0800f9a0   0x000001f4   Code   RO         2067    .text               ethernetif.o
    0x0800fb94   0x00000158   Code   RO         2108    .text               def.o
    0x0800fcec   0x00000328   Code   RO         2135    .text               inet_chksum.o
    0x08010014   0x00000088   Code   RO         2154    .text               init.o
    0x0801009c   0x00000728   Code   RO         2209    .text               mem.o
    0x080107c4   0x00000268   Code   RO         2236    .text               memp.o
    0x08010a2c   0x00000334   Code   RO         2291    .text               netif.o
    0x08010d60   0x0000121c   Code   RO         2330    .text               pbuf.o
    0x08011f7c   0x000016c0   Code   RO         2385    .text               tcp.o
    0x0801363c   0x000019b8   Code   RO         2417    .text               tcp_in.o
    0x08014ff4   0x00001542   Code   RO         2447    .text               tcp_out.o
    0x08016536   0x00000002   PAD
    0x08016538   0x00000358   Code   RO         2471    .text               timeouts.o
    0x08016890   0x000005e0   Code   RO         2497    .text               udp.o
    0x08016e70   0x00001ab4   Code   RO         2535    .text               dhcp_2.o
    0x08018924   0x00000d60   Code   RO         2562    .text               etharp.o
    0x08019684   0x00000374   Code   RO         2585    .text               icmp.o
    0x080199f8   0x000004f8   Code   RO         2614    .text               ip4.o
    0x08019ef0   0x00000350   Code   RO         2632    .text               ip4_addr.o
    0x0801a240   0x00000ab8   Code   RO         2659    .text               ip4_frag.o
    0x0801acf8   0x00000024   Code   RO         2682    .text               mc_w.l(memcpya.o)
    0x0801ad1c   0x00000024   Code   RO         2684    .text               mc_w.l(memseta.o)
    0x0801ad40   0x0000000e   Code   RO         2688    .text               mc_w.l(strlen.o)
    0x0801ad4e   0x0000001c   Code   RO         2690    .text               mc_w.l(strcmp.o)
    0x0801ad6a   0x0000001a   Code   RO         2692    .text               mc_w.l(memcmp.o)
    0x0801ad84   0x0000001e   Code   RO         2694    .text               mc_w.l(strncmp.o)
    0x0801ada2   0x0000002c   Code   RO         2976    .text               mc_w.l(uidiv.o)
    0x0801adce   0x00000002   PAD
    0x0801add0   0x00000024   Code   RO         2991    .text               mc_w.l(init.o)
    0x0801adf4   0x00000000   Code   RO         2993    .text               mc_w.l(semi.o)
    0x0801adf4   0x00000000   Code   RO         3000    .text               mc_w.l(iusesemip.o)
    0x0801adf4   0x00000056   Code   RO         3011    .text               mc_w.l(__dczerorl2.o)
    0x0801ae4a   0x00000002   PAD
    0x0801ae4c   0x00000084   Code   RO         1372    CODE                os_cpu_a.o
    0x0801aed0   0x00000020   Code   RO         2787    i.__0printf$3       mc_w.l(printf3.o)
    0x0801aef0   0x00000028   Code   RO         2789    i.__0sprintf$3      mc_w.l(printf3.o)
    0x0801af18   0x0000000e   Code   RO         3005    i.__scatterload_copy  mc_w.l(handlers.o)
    0x0801af26   0x00000002   Code   RO         3006    i.__scatterload_null  mc_w.l(handlers.o)
    0x0801af28   0x0000000e   Code   RO         3007    i.__scatterload_zeroinit  mc_w.l(handlers.o)
    0x0801af36   0x00000002   PAD
    0x0801af38   0x000001b8   Code   RO         2794    i._printf_core      mc_w.l(printf3.o)
    0x0801b0f0   0x0000000a   Code   RO         2796    i._sputc            mc_w.l(printf3.o)
    0x0801b0fa   0x00000012   Code   RO         2973    i.fputc             mc_w.l(fputc.o)
    0x0801b10c   0x00000200   Data   RO          394    .constdata          protocol.o
    0x0801b30c   0x00000094   Data   RO         1294    .constdata          lib_str.o
    0x0801b3a0   0x00000100   Data   RO         1315    .constdata          cpu_core.o
    0x0801b4a0   0x000000a4   Data   RO         1377    .constdata          os_cfg_app.o
    0x0801b544   0x0000016c   Data   RO         1411    .constdata          os_dbg.o
    0x0801b6b0   0x00000004   Data   RO         1618    .constdata          sys_arch.o
    0x0801b6b4   0x0000000c   Data   RO         2040    .constdata          ethernet.o
    0x0801b6c0   0x000000c0   Data   RO         2238    .constdata          memp.o
    0x0801b780   0x00000050   Data   RO         2386    .constdata          tcp.o
    0x0801b7d0   0x00000028   Data   RO         2472    .constdata          timeouts.o
    0x0801b7f8   0x00000008   Data   RO         2634    .constdata          ip4_addr.o
    0x0801b800   0x00000048   Data   RO         2109    .conststring        def.o
    0x0801b848   0x00000041   Data   RO         2155    .conststring        init.o
    0x0801b889   0x00000003   PAD
    0x0801b88c   0x00000075   Data   RO         2387    .conststring        tcp.o
    0x0801b901   0x00000003   PAD
    0x0801b904   0x00000055   Data   RO         2448    .conststring        tcp_out.o
    0x0801b959   0x00000003   PAD
    0x0801b95c   0x0000008c   Data   RO         2537    .conststring        dhcp_2.o
    0x0801b9e8   0x00000041   Data   RO         2564    .conststring        etharp.o
    0x0801ba29   0x00000003   PAD
    0x0801ba2c   0x00000020   Data   RO         3003    Region$$Table       anon$$obj.o


    Execution Region RW_IRAM1 (Base: 0x20000000, Size: 0x000137d8, Max: 0x00020000, ABSOLUTE, COMPRESSED[0x00000030])

    Base Addr    Size         Type   Attr      Idx    E Section Name        Object

    0x20000000   0x00000014   Data   RW          371    .data               system_stm32f2xx.o
    0x20000014   0x00000004   Data   RW          395    .data               protocol.o
    0x20000018   0x0000000e   Data   RW          582    .data               usart.o
    0x20000026   0x00000002   PAD
    0x20000028   0x00000008   Data   RW          628    .data               timer.o
    0x20000030   0x00000004   Data   RW          683    .data               lan8720.o
    0x20000034   0x00000010   Data   RW          822    .data               stm32f2x7_eth.o
    0x20000044   0x00000010   Data   RW         1113    .data               stm32f2xx_rcc.o
    0x20000054   0x00000004   Data   RW         1276    .data               lib_mem.o
    0x20000058   0x00000004   Data   RW         1316    .data               cpu_core.o
    0x2000005c   0x00000004   Data   RW         1355    .data               os_cpu_c.o
    0x20000060   0x00000008   Data   RW         1492    .data               os_prio.o
    0x20000068   0x000000b4   Data   RW         1595    .data               os_var.o
    0x2000011c   0x00000004   Data   RW         1656    .data               rawudp.o
    0x20000120   0x00000008   Data   RW         2008    .data               tcpip.o
    0x20000128   0x0000000c   Data   RW         2211    .data               mem.o
    0x20000134   0x00000030   Data   RW         2239    .data               memp.o
    0x20000164   0x00000009   Data   RW         2292    .data               netif.o
    0x2000016d   0x00000003   PAD
    0x20000170   0x00000020   Data   RW         2388    .data               tcp.o
    0x20000190   0x00000028   Data   RW         2419    .data               tcp_in.o
    0x200001b8   0x0000000c   Data   RW         2473    .data               timeouts.o
    0x200001c4   0x00000008   Data   RW         2498    .data               udp.o
    0x200001cc   0x00000018   Data   RW         2538    .data               dhcp_2.o
    0x200001e4   0x00000001   Data   RW         2565    .data               etharp.o
    0x200001e5   0x00000001   PAD
    0x200001e6   0x00000002   Data   RW         2615    .data               ip4.o
    0x200001e8   0x00000006   Data   RW         2660    .data               ip4_frag.o
    0x200001ee   0x00000002   PAD
    0x200001f0   0x00000004   Data   RW         2975    .data               mc_w.l(stdout.o)
    0x200001f4   0x000025c4   Zero   RW            3    .bss                app.o
    0x200027b8   0x0000004c   Zero   RW          393    .bss                protocol.o
    0x20002804   0x00000148   Zero   RW          451    .bss                bsp_int.o
    0x2000294c   0x00001000   Zero   RW          558    .bss                w25qxx.o
    0x2000394c   0x00000202   Zero   RW          581    .bss                usart.o
    0x20003b4e   0x00000002   PAD
    0x20003b50   0x00000028   Zero   RW          627    .bss                timer.o
    0x20003b78   0x00003cd4   Zero   RW          821    .bss                stm32f2x7_eth.o
    0x2000784c   0x00002448   Zero   RW         1275    .bss                lib_mem.o
    0x20009c94   0x00000010   Zero   RW         1314    .bss                cpu_core.o
    0x20009ca4   0x00001340   Zero   RW         1376    .bss                os_cfg_app.o
    0x2000afe4   0x0000061c   Zero   RW         1594    .bss                os_var.o
    0x2000b600   0x00001064   Zero   RW         1617    .bss                sys_arch.o
    0x2000c664   0x000008c4   Zero   RW         1655    .bss                rawudp.o
    0x2000cf28   0x000004c4   Zero   RW         1683    .bss                dhcp.o
    0x2000d3ec   0x0000004c   Zero   RW         1724    .bss                lwip_comm_1.o
    0x2000d438   0x00000058   Zero   RW         2007    .bss                tcpip.o
    0x2000d490   0x00000018   Zero   RW         2193    .bss                ip.o
    0x2000d4a8   0x0000143c   Zero   RW         2210    .bss                mem.o
    0x2000e8e4   0x000049c4   Zero   RW         2237    .bss                memp.o
    0x200132a8   0x00000010   Zero   RW         2418    .bss                tcp_in.o
    0x200132b8   0x00000020   Zero   RW         2536    .bss                dhcp_2.o
    0x200132d8   0x000000f0   Zero   RW         2563    .bss                etharp.o
    0x200133c8   0x00000010   Zero   RW         2633    .bss                ip4_addr.o
    0x200133d8   0x00000400   Zero   RW         1608    STACK               cstartup.o


==============================================================================

Image component sizes


      Code (inc. data)   RO Data    RW Data    ZI Data      Debug   Object Name

         0          0          0          0          0       2335   api_lib.o
         0          0          0          0          0       2923   api_msg.o
      1060        262          0          0       9668     377374   app.o
      1616         60          0          0          0      21495   bsp.o
      1064         10          0          0        328      13598   bsp_int.o
         0          0          0          0          0        564   bsp_ser.o
        52          0          0          0          0        316   cpu_a.o
      1916        102          0          0          0       3489   cpu_c.o
       680         14        256          4         16      14200   cpu_core.o
        24          6        388          0       1024        608   cstartup.o
       344          4         72          0          0       2566   def.o
       756        336          0          0       1220       6706   dhcp.o
      6836       1234        140         24         32      18244   dhcp_2.o
      3424        560         65          1        240       8231   etharp.o
       436        128         12          0          0       2068   ethernet.o
       500        116          0          0          0       3203   ethernetif.o
       884        228          0          0          0       3170   icmp.o
       808         86          0          0          0       4500   inet_chksum.o
       136         68         65          0          0        468   init.o
         0          0          0          0         24       2910   ip.o
      1272        150          0          2          0       4429   ip4.o
       848         98          8          0         16       9074   ip4_addr.o
      2744        492          0          6          0       7798   ip4_frag.o
       844         38          0          4          0       3601   lan8720.o
       598          0          0          0          0       3856   lib_ascii.o
      3780         62          0          4       9288      24888   lib_mem.o
       544          0          0          0          0        460   lib_mem_a.o
      2344          4        148          0          0      13710   lib_str.o
       268         40          0          0         76       5549   lwip_comm_1.o
      1832        552          0         12       5180       4002   mem.o
       616        216        192         48      18884       8864   memp.o
       224         20          0          0          0       1849   misc.o
         0          0          0          0          0       6984   netbuf.o
       820        110          0          9          0       7381   netif.o
         2          0        164          0       4928      19498   os_cfg_app.o
      3484        272          0          0          0      12211   os_core.o
       132         32          0          0          0        360   os_cpu_a.o
       620         66          0          4          0       3697   os_cpu_c.o
       428        280        364          0          0       4697   os_dbg.o
      2808         84          0          0          0       7683   os_flag.o
       508         16          0          0          0       2696   os_mem.o
       552         14          0          0          0       2614   os_msg.o
      1932         84          0          0          0       5218   os_mutex.o
       124          4          0          8          0       1668   os_prio.o
      1752         58          0          0          0       6112   os_q.o
      1768         58          0          0          0       6152   os_sem.o
      1448        150          0          0          0       2733   os_stat.o
      4960        188          0          0          0      13346   os_task.o
      1156         74          0          0          0       3189   os_tick.o
      1116         54          0          0          0       3141   os_time.o
      2040        134          0          0          0       6630   os_tmr.o
         0          0          0        180       1564      18073   os_var.o
      4636       1284          0          0          0      13130   pbuf.o
      1992        312        512          4         76       5883   protocol.o
       752        122          0          4       2244       2702   rawudp.o
       732         88          0          0          0       3097   rtc.o
       132          4          0          0          0        727   spi.o
      3636        100          0         16      15572      19920   stm32f2x7_eth.o
       284         10          0          0          0       2307   stm32f2xx_exti.o
       604         36          0          0          0       4009   stm32f2xx_gpio.o
        64          6          0          0          0       1293   stm32f2xx_iwdg.o
       216         12          0          0          0       2276   stm32f2xx_pwr.o
      1416         48          0         16          0      10991   stm32f2xx_rcc.o
      2824         36          0          0          0      12101   stm32f2xx_rtc.o
       936         22          0          0          0       6412   stm32f2xx_spi.o
       140         12          0          0          0       1531   stm32f2xx_syscfg.o
      3234         60          0          0          0      22896   stm32f2xx_tim.o
      1050         26          0          0          0       7744   stm32f2xx_usart.o
      1208        270          4          0       4196      10271   sys_arch.o
       480         40          0         20          0       1719   system_stm32f2xx.o
      5824       1148        197         32          0      25030   tcp.o
      6584       1076          0         40         16      15805   tcp_in.o
      5442        996         85          0          0      19646   tcp_out.o
       864        238          0          8         88       6642   tcpip.o
       856        170         40         12          0       4597   timeouts.o
       244         22          0          8         40       2090   timer.o
      1504        152          0          8          0       8410   udp.o
       972         36          0         14        514       3079   usart.o
       808         30          0          0       4096       3808   w25qxx.o

    ----------------------------------------------------------------------
    109540      12920       2756        496      79332     929247   Object Totals
         0          0         32          0          0          0   (incl. Generated)
         6          0         12          8          2          0   (incl. Padding)

    ----------------------------------------------------------------------

      Code (inc. data)   RO Data    RW Data    ZI Data      Debug   Library Member Name

        86          0          0          0          0          0   __dczerorl2.o
         0          0          0          0          0          0   entry.o
         0          0          0          0          0          0   entry10a.o
         0          0          0          0          0          0   entry11a.o
         8          4          0          0          0          0   entry2.o
         4          0          0          0          0          0   entry5.o
         0          0          0          0          0          0   entry7b.o
         0          0          0          0          0          0   entry8b.o
         8          4          0          0          0          0   entry9a.o
        18          0          0          0          0         80   fputc.o
        30          0          0          0          0          0   handlers.o
        36          8          0          0          0         68   init.o
         0          0          0          0          0          0   iusesemip.o
        26          0          0          0          0         80   memcmp.o
        36          0          0          0          0         68   memcpya.o
        36          0          0          0          0        108   memseta.o
       522         20          0          0          0        336   printf3.o
         0          0          0          0          0          0   semi.o
         0          0          0          4          0          0   stdout.o
        28          0          0          0          0         76   strcmp.o
        14          0          0          0          0         68   strlen.o
        30          0          0          0          0         80   strncmp.o
        44          0          0          0          0         80   uidiv.o

    ----------------------------------------------------------------------
       932         36          0          4          0       1044   Library Totals
         6          0          0          0          0          0   (incl. Padding)

    ----------------------------------------------------------------------

      Code (inc. data)   RO Data    RW Data    ZI Data      Debug   Library Name

       926         36          0          4          0       1044   mc_w.l

    ----------------------------------------------------------------------
       932         36          0          4          0       1044   Library Totals

    ----------------------------------------------------------------------

==============================================================================


      Code (inc. data)   RO Data    RW Data    ZI Data      Debug   

    110472      12956       2756        500      79332     922983   Grand Totals
    110472      12956       2756         48      79332     922983   ELF Image Totals (compressed)
    110472      12956       2756         48          0          0   ROM Totals

==============================================================================

    Total RO  Size (Code + RO Data)               113228 ( 110.57kB)
    Total RW  Size (RW Data + ZI Data)             79832 (  77.96kB)
    Total ROM Size (Code + RO Data + RW Data)     113276 ( 110.62kB)

==============================================================================

